ARM GAS  C:\Users\MARLOK~1\AppData\Local\Temp\ccfXENDA.s 			page 1


   1              		.syntax unified
   2              		.cpu cortex-m0
   3              		.fpu softvfp
   4              		.eabi_attribute 20, 1
   5              		.eabi_attribute 21, 1
   6              		.eabi_attribute 23, 3
   7              		.eabi_attribute 24, 1
   8              		.eabi_attribute 25, 1
   9              		.eabi_attribute 26, 1
  10              		.eabi_attribute 30, 6
  11              		.eabi_attribute 34, 0
  12              		.eabi_attribute 18, 4
  13              		.thumb
  14              		.syntax unified
  15              		.file	"main.c"
  16              		.text
  17              	.Ltext0:
  18              		.cfi_sections	.debug_frame
  19              		.comm	flag,1,1
  20              		.section	.text.ACC_ISR_Handler,"ax",%progbits
  21              		.align	2
  22              		.global	ACC_ISR_Handler
  23              		.code	16
  24              		.thumb_func
  25              		.type	ACC_ISR_Handler, %function
  26              	ACC_ISR_Handler:
  27              	.LFB35:
  28              		.file 1 "main.c"
   1:main.c        **** #include <stdint.h>
   2:main.c        **** #include <inttypes.h>
   3:main.c        **** #include "device.h"
   4:main.c        **** #include "MMA8652.h"
   5:main.c        **** 
   6:main.c        **** CY_ISR_PROTO(ACC_ISR_Hadler);
   7:main.c        **** 
   8:main.c        **** volatile uint8_t flag;
   9:main.c        **** 
  10:main.c        **** CY_ISR(ACC_ISR_Handler)
  11:main.c        **** {
  29              		.loc 1 11 0
  30              		.cfi_startproc
  31              		@ args = 0, pretend = 0, frame = 8
  32              		@ frame_needed = 1, uses_anonymous_args = 0
  33 0000 90B5     		push	{r4, r7, lr}
  34              		.cfi_def_cfa_offset 12
  35              		.cfi_offset 4, -12
  36              		.cfi_offset 7, -8
  37              		.cfi_offset 14, -4
  38 0002 83B0     		sub	sp, sp, #12
  39              		.cfi_def_cfa_offset 24
  40 0004 00AF     		add	r7, sp, #0
  41              		.cfi_def_cfa_register 7
  12:main.c        ****     uint8_t pin;
  13:main.c        ****     
  14:main.c        ****     flag = 0;
  42              		.loc 1 14 0
  43 0006 0F4B     		ldr	r3, .L5
ARM GAS  C:\Users\MARLOK~1\AppData\Local\Temp\ccfXENDA.s 			page 2


  44 0008 0022     		movs	r2, #0
  45 000a 1A70     		strb	r2, [r3]
  15:main.c        ****     
  16:main.c        ****     // Reset interrupt components
  17:main.c        ****     pin = ACC_ClearInterrupt();
  46              		.loc 1 17 0
  47 000c FC1D     		adds	r4, r7, #7
  48 000e FFF7FEFF 		bl	ACC_ClearInterrupt
  49 0012 0300     		movs	r3, r0
  50 0014 2370     		strb	r3, [r4]
  18:main.c        ****     ACC_ISR_ClearPending();
  51              		.loc 1 18 0
  52 0016 FFF7FEFF 		bl	ACC_ISR_ClearPending
  19:main.c        **** 
  20:main.c        ****     // Interrupt on ACC_INT2
  21:main.c        ****     if (pin & 0x01) {
  53              		.loc 1 21 0
  54 001a FB1D     		adds	r3, r7, #7
  55 001c 1B78     		ldrb	r3, [r3]
  56 001e 0122     		movs	r2, #1
  57 0020 1340     		ands	r3, r2
  58 0022 02D0     		beq	.L2
  22:main.c        ****         
  23:main.c        ****         // Put your code here
  24:main.c        ****         flag = 2; 
  59              		.loc 1 24 0
  60 0024 074B     		ldr	r3, .L5
  61 0026 0222     		movs	r2, #2
  62 0028 1A70     		strb	r2, [r3]
  63              	.L2:
  25:main.c        ****         
  26:main.c        ****     }
  27:main.c        ****     
  28:main.c        ****     // Interrupt on ACC_INT1
  29:main.c        ****     if (pin & 0x02) {
  64              		.loc 1 29 0
  65 002a FB1D     		adds	r3, r7, #7
  66 002c 1B78     		ldrb	r3, [r3]
  67 002e 0222     		movs	r2, #2
  68 0030 1340     		ands	r3, r2
  69 0032 02D0     		beq	.L4
  30:main.c        ****         
  31:main.c        ****         // Put your code here
  32:main.c        ****         flag = 1;
  70              		.loc 1 32 0
  71 0034 034B     		ldr	r3, .L5
  72 0036 0122     		movs	r2, #1
  73 0038 1A70     		strb	r2, [r3]
  74              	.L4:
  33:main.c        ****     }
  34:main.c        **** }
  75              		.loc 1 34 0
  76 003a C046     		nop
  77 003c BD46     		mov	sp, r7
  78 003e 03B0     		add	sp, sp, #12
  79              		@ sp needed
  80 0040 90BD     		pop	{r4, r7, pc}
ARM GAS  C:\Users\MARLOK~1\AppData\Local\Temp\ccfXENDA.s 			page 3


  81              	.L6:
  82 0042 C046     		.align	2
  83              	.L5:
  84 0044 00000000 		.word	flag
  85              		.cfi_endproc
  86              	.LFE35:
  87              		.size	ACC_ISR_Handler, .-ACC_ISR_Handler
  88              		.section	.rodata
  89              		.align	2
  90              	.LC3:
  91 0000 666C6167 		.ascii	"flag: %d, id: %d, error: %lu\012\000"
  91      3A202564 
  91      2C206964 
  91      3A202564 
  91      2C206572 
  92              		.section	.text.main,"ax",%progbits
  93              		.align	2
  94              		.global	main
  95              		.code	16
  96              		.thumb_func
  97              		.type	main, %function
  98              	main:
  99              	.LFB36:
  35:main.c        **** 
  36:main.c        **** 
  37:main.c        **** int main(void)
  38:main.c        **** {
 100              		.loc 1 38 0
 101              		.cfi_startproc
 102              		@ args = 0, pretend = 0, frame = 112
 103              		@ frame_needed = 1, uses_anonymous_args = 0
 104 0000 90B5     		push	{r4, r7, lr}
 105              		.cfi_def_cfa_offset 12
 106              		.cfi_offset 4, -12
 107              		.cfi_offset 7, -8
 108              		.cfi_offset 14, -4
 109 0002 9FB0     		sub	sp, sp, #124
 110              		.cfi_def_cfa_offset 136
 111 0004 02AF     		add	r7, sp, #8
 112              		.cfi_def_cfa 7, 128
  39:main.c        ****     CyGlobalIntEnable;
 113              		.loc 1 39 0
 114              		.syntax divided
 115              	@ 39 "main.c" 1
 116 0006 62B6     		CPSIE   i
 117              	@ 0 "" 2
  40:main.c        ****     
  41:main.c        ****     // Start basic components
  42:main.c        ****     UART_Start();
 118              		.loc 1 42 0
 119              		.thumb
 120              		.syntax unified
 121 0008 FFF7FEFF 		bl	UART_Start
  43:main.c        ****     I2C_Start();
 122              		.loc 1 43 0
 123 000c FFF7FEFF 		bl	I2C_Start
  44:main.c        ****     
ARM GAS  C:\Users\MARLOK~1\AppData\Local\Temp\ccfXENDA.s 			page 4


  45:main.c        ****     // Register interrupt handler function
  46:main.c        ****     ACC_ISR_StartEx(ACC_ISR_Handler);
 124              		.loc 1 46 0
 125 0010 114B     		ldr	r3, .L9
 126 0012 1800     		movs	r0, r3
 127 0014 FFF7FEFF 		bl	ACC_ISR_StartEx
 128              	.L8:
 129              	.LBB2:
  47:main.c        ****     
  48:main.c        ****     // Main loop
  49:main.c        ****     for(;;) {
  50:main.c        ****         
  51:main.c        ****         uint32_t error;
  52:main.c        ****         uint8_t id;
  53:main.c        ****         char tmp[100];
  54:main.c        ****         
  55:main.c        ****         error = MMA8652_WhoAmI(&id);
 130              		.loc 1 55 0 discriminator 1
 131 0018 6B23     		movs	r3, #107
 132 001a FB18     		adds	r3, r7, r3
 133 001c 1800     		movs	r0, r3
 134 001e FFF7FEFF 		bl	MMA8652_WhoAmI
 135 0022 0300     		movs	r3, r0
 136 0024 FB66     		str	r3, [r7, #108]
  56:main.c        ****         
  57:main.c        ****         sprintf(tmp, "flag: %d, id: %d, error: %" PRIu32 "\n", flag, id, error);
 137              		.loc 1 57 0 discriminator 1
 138 0026 0D4B     		ldr	r3, .L9+4
 139 0028 1B78     		ldrb	r3, [r3]
 140 002a DBB2     		uxtb	r3, r3
 141 002c 1A00     		movs	r2, r3
 142 002e 6B23     		movs	r3, #107
 143 0030 FB18     		adds	r3, r7, r3
 144 0032 1B78     		ldrb	r3, [r3]
 145 0034 1C00     		movs	r4, r3
 146 0036 0A49     		ldr	r1, .L9+8
 147 0038 381D     		adds	r0, r7, #4
 148 003a FB6E     		ldr	r3, [r7, #108]
 149 003c 0093     		str	r3, [sp]
 150 003e 2300     		movs	r3, r4
 151 0040 FFF7FEFF 		bl	sprintf
  58:main.c        ****         UART_UartPutString(tmp);
 152              		.loc 1 58 0 discriminator 1
 153 0044 3B1D     		adds	r3, r7, #4
 154 0046 1800     		movs	r0, r3
 155 0048 FFF7FEFF 		bl	UART_UartPutString
  59:main.c        ****         
  60:main.c        ****         CyDelay(1000);
 156              		.loc 1 60 0 discriminator 1
 157 004c FA23     		movs	r3, #250
 158 004e 9B00     		lsls	r3, r3, #2
 159 0050 1800     		movs	r0, r3
 160 0052 FFF7FEFF 		bl	CyDelay
 161              	.LBE2:
  61:main.c        ****         
  62:main.c        ****     }
 162              		.loc 1 62 0 discriminator 1
ARM GAS  C:\Users\MARLOK~1\AppData\Local\Temp\ccfXENDA.s 			page 5


 163 0056 DFE7     		b	.L8
 164              	.L10:
 165              		.align	2
 166              	.L9:
 167 0058 00000000 		.word	ACC_ISR_Handler
 168 005c 00000000 		.word	flag
 169 0060 00000000 		.word	.LC3
 170              		.cfi_endproc
 171              	.LFE36:
 172              		.size	main, .-main
 173              		.text
 174              	.Letext0:
 175              		.file 2 "c:\\program files (x86)\\cypress\\psoc creator\\4.2\\psoc creator\\import\\gnu\\arm\\5.4.
 176              		.file 3 "c:\\program files (x86)\\cypress\\psoc creator\\4.2\\psoc creator\\import\\gnu\\arm\\5.4.