ARM GAS  C:\Users\MARLOK~1\AppData\Local\Temp\ccVNfKl6.s 			page 1


   1              		.syntax unified
   2              		.cpu cortex-m0
   3              		.fpu softvfp
   4              		.eabi_attribute 20, 1
   5              		.eabi_attribute 21, 1
   6              		.eabi_attribute 23, 3
   7              		.eabi_attribute 24, 1
   8              		.eabi_attribute 25, 1
   9              		.eabi_attribute 26, 1
  10              		.eabi_attribute 30, 4
  11              		.eabi_attribute 34, 0
  12              		.eabi_attribute 18, 4
  13              		.thumb
  14              		.syntax unified
  15              		.file	"MMA8652.c"
  16              		.text
  17              	.Ltext0:
  18              		.cfi_sections	.debug_frame
  19              		.section	.text.MMA8652_Write,"ax",%progbits
  20              		.align	1
  21              		.global	MMA8652_Write
  22              		.code	16
  23              		.thumb_func
  24              		.type	MMA8652_Write, %function
  25              	MMA8652_Write:
  26              	.LFB35:
  27              		.file 1 "MMA8652.c"
   1:MMA8652.c     **** #include <MMA8652.h>
   2:MMA8652.c     **** 
   3:MMA8652.c     **** uint32_t MMA8652_Write(uint32_t address, uint32_t data)
   4:MMA8652.c     **** {
  28              		.loc 1 4 0
  29              		.cfi_startproc
  30              		@ args = 0, pretend = 0, frame = 0
  31              		@ frame_needed = 0, uses_anonymous_args = 0
  32              	.LVL0:
  33 0000 70B5     		push	{r4, r5, r6, lr}
  34              		.cfi_def_cfa_offset 16
  35              		.cfi_offset 4, -16
  36              		.cfi_offset 5, -12
  37              		.cfi_offset 6, -8
  38              		.cfi_offset 14, -4
   5:MMA8652.c     ****     uint32_t error = 0;
   6:MMA8652.c     ****     
   7:MMA8652.c     ****     if ((error = I2C_I2CMasterSendStart(MMA8652_ADDR, I2C_WRITE, I2C_TIMEOUT)) != 0) {
  39              		.loc 1 7 0
  40 0002 C822     		movs	r2, #200
   4:MMA8652.c     ****     uint32_t error = 0;
  41              		.loc 1 4 0
  42 0004 0600     		movs	r6, r0
  43              	.LVL1:
  44 0006 0D00     		movs	r5, r1
  45              		.loc 1 7 0
  46 0008 1D20     		movs	r0, #29
  47              	.LVL2:
  48 000a 0021     		movs	r1, #0
  49              	.LVL3:
ARM GAS  C:\Users\MARLOK~1\AppData\Local\Temp\ccVNfKl6.s 			page 2


  50 000c FFF7FEFF 		bl	I2C_I2CMasterSendStart
  51              	.LVL4:
  52 0010 041E     		subs	r4, r0, #0
  53              	.LVL5:
  54 0012 05D1     		bne	.L6
   8:MMA8652.c     ****         I2C_I2CMasterSendStop(I2C_TIMEOUT);
   9:MMA8652.c     ****         return error;
  10:MMA8652.c     ****     }
  11:MMA8652.c     ****     
  12:MMA8652.c     ****     if ((error = I2C_I2CMasterWriteByte(address, I2C_TIMEOUT)) != 0) {
  55              		.loc 1 12 0
  56 0014 C821     		movs	r1, #200
  57 0016 3000     		movs	r0, r6
  58              	.LVL6:
  59 0018 FFF7FEFF 		bl	I2C_I2CMasterWriteByte
  60              	.LVL7:
  61 001c 041E     		subs	r4, r0, #0
  62              	.LVL8:
  63 001e 01D0     		beq	.L4
  64              	.L6:
  13:MMA8652.c     ****         I2C_I2CMasterSendStop(I2C_TIMEOUT);
  65              		.loc 1 13 0
  66 0020 C820     		movs	r0, #200
  67              	.LVL9:
  68 0022 07E0     		b	.L7
  69              	.LVL10:
  70              	.L4:
  14:MMA8652.c     ****         return error;
  15:MMA8652.c     ****     }
  16:MMA8652.c     ****     
  17:MMA8652.c     ****     if ((error = I2C_I2CMasterWriteByte(data, I2C_TIMEOUT)) != 0) {
  71              		.loc 1 17 0
  72 0024 C821     		movs	r1, #200
  73 0026 2800     		movs	r0, r5
  74              	.LVL11:
  75 0028 FFF7FEFF 		bl	I2C_I2CMasterWriteByte
  76              	.LVL12:
  77 002c 0400     		movs	r4, r0
  78              	.LVL13:
  18:MMA8652.c     ****         I2C_I2CMasterSendStop(I2C_TIMEOUT);
  79              		.loc 1 18 0
  80 002e C820     		movs	r0, #200
  81              	.LVL14:
  17:MMA8652.c     ****         I2C_I2CMasterSendStop(I2C_TIMEOUT);
  82              		.loc 1 17 0
  83 0030 002C     		cmp	r4, #0
  84 0032 03D0     		beq	.L5
  85              	.L7:
  86              		.loc 1 18 0
  87 0034 FFF7FEFF 		bl	I2C_I2CMasterSendStop
  88              	.LVL15:
  19:MMA8652.c     ****         return error;
  89              		.loc 1 19 0
  90 0038 2000     		movs	r0, r4
  91 003a 01E0     		b	.L3
  92              	.L5:
  93              	.LVL16:
ARM GAS  C:\Users\MARLOK~1\AppData\Local\Temp\ccVNfKl6.s 			page 3


  94              	.LBB4:
  95              	.LBB5:
  20:MMA8652.c     ****     }  
  21:MMA8652.c     ****     
  22:MMA8652.c     ****     error = I2C_I2CMasterSendStop(I2C_TIMEOUT);
  23:MMA8652.c     ****     return error;
  24:MMA8652.c     **** }
  25:MMA8652.c     **** 
  26:MMA8652.c     ****    
  27:MMA8652.c     **** uint32_t MMA8652_Read(uint32_t address, uint8_t* received)
  28:MMA8652.c     **** {
  29:MMA8652.c     ****     uint32_t error = 0;
  30:MMA8652.c     ****     
  31:MMA8652.c     ****     if ((error = I2C_I2CMasterSendStart(MMA8652_ADDR, I2C_WRITE, I2C_TIMEOUT)) != 0) {
  32:MMA8652.c     ****         I2C_I2CMasterSendStop(I2C_TIMEOUT);
  33:MMA8652.c     ****         return error;
  34:MMA8652.c     ****     }
  35:MMA8652.c     ****     
  36:MMA8652.c     ****     if ((error = I2C_I2CMasterWriteByte(address, I2C_TIMEOUT)) != 0) {
  37:MMA8652.c     ****         I2C_I2CMasterSendStop(I2C_TIMEOUT);
  38:MMA8652.c     ****         return error;
  39:MMA8652.c     ****     }
  40:MMA8652.c     ****     
  41:MMA8652.c     ****     if ((error = I2C_I2CMasterSendRestart(MMA8652_ADDR, I2C_READ, I2C_TIMEOUT)) != 0) {
  42:MMA8652.c     ****         I2C_I2CMasterSendStop(I2C_TIMEOUT);
  43:MMA8652.c     ****         return error;
  44:MMA8652.c     ****     }
  45:MMA8652.c     ****     
  46:MMA8652.c     ****     if ((error = I2C_I2CMasterReadByte(I2C_NACK, received, I2C_TIMEOUT)) != 0) {
  47:MMA8652.c     ****         I2C_I2CMasterSendStop(I2C_TIMEOUT);
  48:MMA8652.c     ****         return error;
  49:MMA8652.c     ****     }
  50:MMA8652.c     ****     
  51:MMA8652.c     ****     error  = I2C_I2CMasterSendStop(I2C_TIMEOUT);
  96              		.loc 1 51 0
  97 003c FFF7FEFF 		bl	I2C_I2CMasterSendStop
  98              	.LVL17:
  99              	.L3:
 100              	.LBE5:
 101              	.LBE4:
  24:MMA8652.c     **** 
 102              		.loc 1 24 0
 103              		@ sp needed
 104              	.LVL18:
 105              	.LVL19:
 106              	.LVL20:
 107 0040 70BD     		pop	{r4, r5, r6, pc}
 108              		.cfi_endproc
 109              	.LFE35:
 110              		.size	MMA8652_Write, .-MMA8652_Write
 111              		.section	.text.MMA8652_Read,"ax",%progbits
 112              		.align	1
 113              		.global	MMA8652_Read
 114              		.code	16
 115              		.thumb_func
 116              		.type	MMA8652_Read, %function
 117              	MMA8652_Read:
ARM GAS  C:\Users\MARLOK~1\AppData\Local\Temp\ccVNfKl6.s 			page 4


 118              	.LFB36:
  28:MMA8652.c     ****     uint32_t error = 0;
 119              		.loc 1 28 0
 120              		.cfi_startproc
 121              		@ args = 0, pretend = 0, frame = 0
 122              		@ frame_needed = 0, uses_anonymous_args = 0
 123              	.LVL21:
 124 0000 70B5     		push	{r4, r5, r6, lr}
 125              		.cfi_def_cfa_offset 16
 126              		.cfi_offset 4, -16
 127              		.cfi_offset 5, -12
 128              		.cfi_offset 6, -8
 129              		.cfi_offset 14, -4
  31:MMA8652.c     ****         I2C_I2CMasterSendStop(I2C_TIMEOUT);
 130              		.loc 1 31 0
 131 0002 C822     		movs	r2, #200
  28:MMA8652.c     ****     uint32_t error = 0;
 132              		.loc 1 28 0
 133 0004 0600     		movs	r6, r0
 134              	.LVL22:
 135 0006 0D00     		movs	r5, r1
  31:MMA8652.c     ****         I2C_I2CMasterSendStop(I2C_TIMEOUT);
 136              		.loc 1 31 0
 137 0008 1D20     		movs	r0, #29
 138              	.LVL23:
 139 000a 0021     		movs	r1, #0
 140              	.LVL24:
 141 000c FFF7FEFF 		bl	I2C_I2CMasterSendStart
 142              	.LVL25:
 143 0010 041E     		subs	r4, r0, #0
 144              	.LVL26:
 145 0012 0CD1     		bne	.L17
  36:MMA8652.c     ****         I2C_I2CMasterSendStop(I2C_TIMEOUT);
 146              		.loc 1 36 0
 147 0014 C821     		movs	r1, #200
 148 0016 3000     		movs	r0, r6
 149              	.LVL27:
 150 0018 FFF7FEFF 		bl	I2C_I2CMasterWriteByte
 151              	.LVL28:
 152 001c 041E     		subs	r4, r0, #0
 153              	.LVL29:
 154 001e 06D1     		bne	.L17
  41:MMA8652.c     ****         I2C_I2CMasterSendStop(I2C_TIMEOUT);
 155              		.loc 1 41 0
 156 0020 C822     		movs	r2, #200
 157 0022 FF21     		movs	r1, #255
 158 0024 1D20     		movs	r0, #29
 159              	.LVL30:
 160 0026 FFF7FEFF 		bl	I2C_I2CMasterSendRestart
 161              	.LVL31:
 162 002a 041E     		subs	r4, r0, #0
 163              	.LVL32:
 164 002c 01D0     		beq	.L13
 165              	.L17:
  42:MMA8652.c     ****         return error;
 166              		.loc 1 42 0
 167 002e C820     		movs	r0, #200
ARM GAS  C:\Users\MARLOK~1\AppData\Local\Temp\ccVNfKl6.s 			page 5


 168              	.LVL33:
 169 0030 08E0     		b	.L16
 170              	.LVL34:
 171              	.L13:
  46:MMA8652.c     ****         I2C_I2CMasterSendStop(I2C_TIMEOUT);
 172              		.loc 1 46 0
 173 0032 C822     		movs	r2, #200
 174 0034 2900     		movs	r1, r5
 175 0036 FF20     		movs	r0, #255
 176              	.LVL35:
 177 0038 FFF7FEFF 		bl	I2C_I2CMasterReadByte
 178              	.LVL36:
 179 003c 0400     		movs	r4, r0
 180              	.LVL37:
  47:MMA8652.c     ****         return error;
 181              		.loc 1 47 0
 182 003e C820     		movs	r0, #200
 183              	.LVL38:
  46:MMA8652.c     ****         I2C_I2CMasterSendStop(I2C_TIMEOUT);
 184              		.loc 1 46 0
 185 0040 002C     		cmp	r4, #0
 186 0042 03D0     		beq	.L14
 187              	.L16:
  47:MMA8652.c     ****         return error;
 188              		.loc 1 47 0
 189 0044 FFF7FEFF 		bl	I2C_I2CMasterSendStop
 190              	.LVL39:
  48:MMA8652.c     ****     }
 191              		.loc 1 48 0
 192 0048 2000     		movs	r0, r4
 193 004a 01E0     		b	.L11
 194              	.L14:
 195              	.LVL40:
 196              	.LBB8:
 197              	.LBB9:
 198              		.loc 1 51 0
 199 004c FFF7FEFF 		bl	I2C_I2CMasterSendStop
 200              	.LVL41:
 201              	.L11:
 202              	.LBE9:
 203              	.LBE8:
  52:MMA8652.c     ****     return error;
  53:MMA8652.c     **** }
 204              		.loc 1 53 0
 205              		@ sp needed
 206              	.LVL42:
 207              	.LVL43:
 208              	.LVL44:
 209 0050 70BD     		pop	{r4, r5, r6, pc}
 210              		.cfi_endproc
 211              	.LFE36:
 212              		.size	MMA8652_Read, .-MMA8652_Read
 213              		.section	.text.MMA8652_ActiveMode,"ax",%progbits
 214              		.align	1
 215              		.global	MMA8652_ActiveMode
 216              		.code	16
 217              		.thumb_func
ARM GAS  C:\Users\MARLOK~1\AppData\Local\Temp\ccVNfKl6.s 			page 6


 218              		.type	MMA8652_ActiveMode, %function
 219              	MMA8652_ActiveMode:
 220              	.LFB38:
  54:MMA8652.c     **** 
  55:MMA8652.c     **** uint32_t MMA8652_Initialize(void)
  56:MMA8652.c     **** {
  57:MMA8652.c     ****     uint32_t error;
  58:MMA8652.c     **** 
  59:MMA8652.c     ****     error = MMA8652_StandByMode();
  60:MMA8652.c     ****     if (error) {
  61:MMA8652.c     ****         I2C_I2CMasterSendStop(I2C_TIMEOUT);
  62:MMA8652.c     ****         return error;
  63:MMA8652.c     ****     }
  64:MMA8652.c     **** 
  65:MMA8652.c     ****     // Accelerometer range of +/-2g range with high pass output filter disabled
  66:MMA8652.c     ****     // 1024 counts/g = 1 mg/LSB
  67:MMA8652.c     ****     error = MMA8652_Write(MMA8652_XYZ_DATA_CFG, 0x00);
  68:MMA8652.c     ****     if (error) {
  69:MMA8652.c     ****         return error;
  70:MMA8652.c     ****     }
  71:MMA8652.c     ****     
  72:MMA8652.c     ****     // Data rate = 400 Hz, sleep rate = 12.5 Hz
  73:MMA8652.c     ****     error = MMA8652_Write(MMA8652_CTRL_REG1, 0x48);
  74:MMA8652.c     ****     if (error) {
  75:MMA8652.c     ****         return error;
  76:MMA8652.c     ****     }
  77:MMA8652.c     ****     
  78:MMA8652.c     ****     // Active mode: low power, auto-sleep: disabled
  79:MMA8652.c     ****     error = MMA8652_Write(MMA8652_CTRL_REG2, 0x03);
  80:MMA8652.c     ****     if (error) {
  81:MMA8652.c     ****         return error;
  82:MMA8652.c     ****     }
  83:MMA8652.c     ****     
  84:MMA8652.c     ****     // Enable interrupts - Push-pull output, ACTIVE low
  85:MMA8652.c     ****     // Pulse function interrupt can wake-up system
  86:MMA8652.c     ****     // Orientation interrupt can wake-up system
  87:MMA8652.c     ****     // Free-fall/motion function interrupt can wake-up system
  88:MMA8652.c     ****     error = MMA8652_Write(MMA8652_CTRL_REG3, 0x79);
  89:MMA8652.c     ****     if (error) {
  90:MMA8652.c     ****         return error;
  91:MMA8652.c     ****     }
  92:MMA8652.c     ****     
  93:MMA8652.c     ****     // Enable Pulse detection Interrupt
  94:MMA8652.c     ****     // Enable Free-fall/motion Interrupt
  95:MMA8652.c     ****     error = MMA8652_Write(MMA8652_CTRL_REG4, 0x0C);
  96:MMA8652.c     ****     if (error) {
  97:MMA8652.c     ****         return error;
  98:MMA8652.c     ****     }
  99:MMA8652.c     ****     
 100:MMA8652.c     ****     // Orientation Interrupt and Free-fall/motion Interrupt to INT1 pin
 101:MMA8652.c     ****     // Pulse detection Interrupt to INT2 pin
 102:MMA8652.c     ****     error = MMA8652_Write(MMA8652_CTRL_REG5, 0x08);
 103:MMA8652.c     ****     if (error) {
 104:MMA8652.c     ****         return error;
 105:MMA8652.c     ****     }
 106:MMA8652.c     ****     
 107:MMA8652.c     ****     error = MMA8652_ActiveMode();
ARM GAS  C:\Users\MARLOK~1\AppData\Local\Temp\ccVNfKl6.s 			page 7


 108:MMA8652.c     ****     return error;
 109:MMA8652.c     **** }
 110:MMA8652.c     **** 
 111:MMA8652.c     **** uint32_t MMA8652_ActiveMode(void)
 112:MMA8652.c     **** {
 221              		.loc 1 112 0
 222              		.cfi_startproc
 223              		@ args = 0, pretend = 0, frame = 8
 224              		@ frame_needed = 0, uses_anonymous_args = 0
 225              	.LVL45:
 226 0000 13B5     		push	{r0, r1, r4, lr}
 227              		.cfi_def_cfa_offset 16
 228              		.cfi_offset 0, -16
 229              		.cfi_offset 1, -12
 230              		.cfi_offset 4, -8
 231              		.cfi_offset 14, -4
 113:MMA8652.c     ****     uint8_t received;
 114:MMA8652.c     ****     uint32_t error = 0;
 115:MMA8652.c     ****     
 116:MMA8652.c     ****     // Set ACTIVE bit to 1
 117:MMA8652.c     ****     error = MMA8652_Read(MMA8652_CTRL_REG1, &received);
 232              		.loc 1 117 0
 233 0002 6B46     		mov	r3, sp
 234 0004 DC1D     		adds	r4, r3, #7
 235 0006 2100     		movs	r1, r4
 236 0008 2A20     		movs	r0, #42
 237 000a FFF7FEFF 		bl	MMA8652_Read
 238              	.LVL46:
 118:MMA8652.c     ****     if (error) {
 239              		.loc 1 118 0
 240 000e 0028     		cmp	r0, #0
 241 0010 05D1     		bne	.L19
 119:MMA8652.c     ****         return error;
 120:MMA8652.c     ****     }
 121:MMA8652.c     ****     
 122:MMA8652.c     ****     error = MMA8652_Write(MMA8652_CTRL_REG1, received | ACTIVE_MASK);
 242              		.loc 1 122 0
 243 0012 0121     		movs	r1, #1
 244 0014 2378     		ldrb	r3, [r4]
 245 0016 2A30     		adds	r0, r0, #42
 246              	.LVL47:
 247 0018 1943     		orrs	r1, r3
 248 001a FFF7FEFF 		bl	MMA8652_Write
 249              	.LVL48:
 250              	.L19:
 123:MMA8652.c     ****     return error;
 124:MMA8652.c     **** }
 251              		.loc 1 124 0
 252              		@ sp needed
 253 001e 16BD     		pop	{r1, r2, r4, pc}
 254              		.cfi_endproc
 255              	.LFE38:
 256              		.size	MMA8652_ActiveMode, .-MMA8652_ActiveMode
 257              		.section	.text.MMA8652_StandByMode,"ax",%progbits
 258              		.align	1
 259              		.global	MMA8652_StandByMode
 260              		.code	16
ARM GAS  C:\Users\MARLOK~1\AppData\Local\Temp\ccVNfKl6.s 			page 8


 261              		.thumb_func
 262              		.type	MMA8652_StandByMode, %function
 263              	MMA8652_StandByMode:
 264              	.LFB39:
 125:MMA8652.c     **** 
 126:MMA8652.c     **** uint32_t MMA8652_StandByMode(void)
 127:MMA8652.c     **** {
 265              		.loc 1 127 0
 266              		.cfi_startproc
 267              		@ args = 0, pretend = 0, frame = 8
 268              		@ frame_needed = 0, uses_anonymous_args = 0
 269              	.LVL49:
 270 0000 13B5     		push	{r0, r1, r4, lr}
 271              		.cfi_def_cfa_offset 16
 272              		.cfi_offset 0, -16
 273              		.cfi_offset 1, -12
 274              		.cfi_offset 4, -8
 275              		.cfi_offset 14, -4
 128:MMA8652.c     ****     uint8_t received;
 129:MMA8652.c     ****     uint32_t error = 0;
 130:MMA8652.c     ****     
 131:MMA8652.c     ****     // Set ACTIVE bit to 0
 132:MMA8652.c     ****     error = MMA8652_Read(MMA8652_CTRL_REG1, &received);
 276              		.loc 1 132 0
 277 0002 6B46     		mov	r3, sp
 278 0004 DC1D     		adds	r4, r3, #7
 279 0006 2100     		movs	r1, r4
 280 0008 2A20     		movs	r0, #42
 281 000a FFF7FEFF 		bl	MMA8652_Read
 282              	.LVL50:
 133:MMA8652.c     ****     if (error) {
 283              		.loc 1 133 0
 284 000e 0028     		cmp	r0, #0
 285 0010 05D1     		bne	.L22
 134:MMA8652.c     ****         return error;
 135:MMA8652.c     ****     }
 136:MMA8652.c     ****     
 137:MMA8652.c     ****     error = MMA8652_Write(MMA8652_CTRL_REG1, received & ~ACTIVE_MASK);
 286              		.loc 1 137 0
 287 0012 0123     		movs	r3, #1
 288 0014 2178     		ldrb	r1, [r4]
 289 0016 2A30     		adds	r0, r0, #42
 290              	.LVL51:
 291 0018 9943     		bics	r1, r3
 292 001a FFF7FEFF 		bl	MMA8652_Write
 293              	.LVL52:
 294              	.L22:
 138:MMA8652.c     ****     return error;
 139:MMA8652.c     **** }
 295              		.loc 1 139 0
 296              		@ sp needed
 297 001e 16BD     		pop	{r1, r2, r4, pc}
 298              		.cfi_endproc
 299              	.LFE39:
 300              		.size	MMA8652_StandByMode, .-MMA8652_StandByMode
 301              		.section	.text.MMA8652_Initialize,"ax",%progbits
 302              		.align	1
ARM GAS  C:\Users\MARLOK~1\AppData\Local\Temp\ccVNfKl6.s 			page 9


 303              		.global	MMA8652_Initialize
 304              		.code	16
 305              		.thumb_func
 306              		.type	MMA8652_Initialize, %function
 307              	MMA8652_Initialize:
 308              	.LFB37:
  56:MMA8652.c     ****     uint32_t error;
 309              		.loc 1 56 0
 310              		.cfi_startproc
 311              		@ args = 0, pretend = 0, frame = 0
 312              		@ frame_needed = 0, uses_anonymous_args = 0
 313 0000 10B5     		push	{r4, lr}
 314              		.cfi_def_cfa_offset 8
 315              		.cfi_offset 4, -8
 316              		.cfi_offset 14, -4
  59:MMA8652.c     ****     if (error) {
 317              		.loc 1 59 0
 318 0002 FFF7FEFF 		bl	MMA8652_StandByMode
 319              	.LVL53:
 320 0006 041E     		subs	r4, r0, #0
 321              	.LVL54:
  60:MMA8652.c     ****         I2C_I2CMasterSendStop(I2C_TIMEOUT);
 322              		.loc 1 60 0
 323 0008 04D0     		beq	.L25
  61:MMA8652.c     ****         return error;
 324              		.loc 1 61 0
 325 000a C820     		movs	r0, #200
 326              	.LVL55:
 327 000c FFF7FEFF 		bl	I2C_I2CMasterSendStop
 328              	.LVL56:
  62:MMA8652.c     ****     }
 329              		.loc 1 62 0
 330 0010 2000     		movs	r0, r4
 331 0012 25E0     		b	.L26
 332              	.L25:
  67:MMA8652.c     ****     if (error) {
 333              		.loc 1 67 0
 334 0014 0100     		movs	r1, r0
 335 0016 0E20     		movs	r0, #14
 336 0018 FFF7FEFF 		bl	MMA8652_Write
 337              	.LVL57:
  68:MMA8652.c     ****         return error;
 338              		.loc 1 68 0
 339 001c 0028     		cmp	r0, #0
 340 001e 1FD1     		bne	.L26
  73:MMA8652.c     ****     if (error) {
 341              		.loc 1 73 0
 342 0020 4821     		movs	r1, #72
 343 0022 2A30     		adds	r0, r0, #42
 344              	.LVL58:
 345 0024 FFF7FEFF 		bl	MMA8652_Write
 346              	.LVL59:
  74:MMA8652.c     ****         return error;
 347              		.loc 1 74 0
 348 0028 0028     		cmp	r0, #0
 349 002a 19D1     		bne	.L26
  79:MMA8652.c     ****     if (error) {
ARM GAS  C:\Users\MARLOK~1\AppData\Local\Temp\ccVNfKl6.s 			page 10


 350              		.loc 1 79 0
 351 002c 0321     		movs	r1, #3
 352 002e 2B30     		adds	r0, r0, #43
 353              	.LVL60:
 354 0030 FFF7FEFF 		bl	MMA8652_Write
 355              	.LVL61:
  80:MMA8652.c     ****         return error;
 356              		.loc 1 80 0
 357 0034 0028     		cmp	r0, #0
 358 0036 13D1     		bne	.L26
  88:MMA8652.c     ****     if (error) {
 359              		.loc 1 88 0
 360 0038 7921     		movs	r1, #121
 361 003a 2C30     		adds	r0, r0, #44
 362              	.LVL62:
 363 003c FFF7FEFF 		bl	MMA8652_Write
 364              	.LVL63:
  89:MMA8652.c     ****         return error;
 365              		.loc 1 89 0
 366 0040 0028     		cmp	r0, #0
 367 0042 0DD1     		bne	.L26
  95:MMA8652.c     ****     if (error) {
 368              		.loc 1 95 0
 369 0044 0C21     		movs	r1, #12
 370 0046 2D30     		adds	r0, r0, #45
 371              	.LVL64:
 372 0048 FFF7FEFF 		bl	MMA8652_Write
 373              	.LVL65:
  96:MMA8652.c     ****         return error;
 374              		.loc 1 96 0
 375 004c 0028     		cmp	r0, #0
 376 004e 07D1     		bne	.L26
 102:MMA8652.c     ****     if (error) {
 377              		.loc 1 102 0
 378 0050 0821     		movs	r1, #8
 379 0052 2E30     		adds	r0, r0, #46
 380              	.LVL66:
 381 0054 FFF7FEFF 		bl	MMA8652_Write
 382              	.LVL67:
 103:MMA8652.c     ****         return error;
 383              		.loc 1 103 0
 384 0058 0028     		cmp	r0, #0
 385 005a 01D1     		bne	.L26
 107:MMA8652.c     ****     return error;
 386              		.loc 1 107 0
 387 005c FFF7FEFF 		bl	MMA8652_ActiveMode
 388              	.LVL68:
 389              	.L26:
 109:MMA8652.c     **** 
 390              		.loc 1 109 0
 391              		@ sp needed
 392 0060 10BD     		pop	{r4, pc}
 393              		.cfi_endproc
 394              	.LFE37:
 395              		.size	MMA8652_Initialize, .-MMA8652_Initialize
 396              		.section	.text.MMA8652_Reset,"ax",%progbits
 397              		.align	1
ARM GAS  C:\Users\MARLOK~1\AppData\Local\Temp\ccVNfKl6.s 			page 11


 398              		.global	MMA8652_Reset
 399              		.code	16
 400              		.thumb_func
 401              		.type	MMA8652_Reset, %function
 402              	MMA8652_Reset:
 403              	.LFB40:
 140:MMA8652.c     ****     
 141:MMA8652.c     **** uint32_t MMA8652_Reset(void)
 142:MMA8652.c     **** {
 404              		.loc 1 142 0
 405              		.cfi_startproc
 406              		@ args = 0, pretend = 0, frame = 8
 407              		@ frame_needed = 0, uses_anonymous_args = 0
 408 0000 37B5     		push	{r0, r1, r2, r4, r5, lr}
 409              		.cfi_def_cfa_offset 24
 410              		.cfi_offset 0, -24
 411              		.cfi_offset 1, -20
 412              		.cfi_offset 2, -16
 413              		.cfi_offset 4, -12
 414              		.cfi_offset 5, -8
 415              		.cfi_offset 14, -4
 143:MMA8652.c     ****     uint32_t error;
 144:MMA8652.c     ****     uint8_t received;
 145:MMA8652.c     ****     
 146:MMA8652.c     ****     error = MMA8652_Write(MMA8652_CTRL_REG2, RST_MASK);
 416              		.loc 1 146 0
 417 0002 4021     		movs	r1, #64
 418 0004 2B20     		movs	r0, #43
 419 0006 FFF7FEFF 		bl	MMA8652_Write
 420              	.LVL69:
 147:MMA8652.c     ****     if (error) {
 421              		.loc 1 147 0
 422 000a 0028     		cmp	r0, #0
 423 000c 0ED1     		bne	.L34
 148:MMA8652.c     ****         return error;
 149:MMA8652.c     ****     }
 150:MMA8652.c     ****     
 151:MMA8652.c     ****     CyDelay(1);
 424              		.loc 1 151 0
 425 000e 0130     		adds	r0, r0, #1
 426              	.LVL70:
 427 0010 FFF7FEFF 		bl	CyDelay
 428              	.LVL71:
 152:MMA8652.c     ****     
 153:MMA8652.c     ****     do {
 154:MMA8652.c     ****         error = MMA8652_Read(MMA8652_CTRL_REG2, &received);
 155:MMA8652.c     ****     } while ((error == 0) && ((received & RST_MASK) != 0));
 429              		.loc 1 155 0
 430 0014 4024     		movs	r4, #64
 431              	.L35:
 154:MMA8652.c     ****     } while ((error == 0) && ((received & RST_MASK) != 0));
 432              		.loc 1 154 0 discriminator 2
 433 0016 6B46     		mov	r3, sp
 434 0018 DD1D     		adds	r5, r3, #7
 435 001a 2900     		movs	r1, r5
 436 001c 2B20     		movs	r0, #43
 437 001e FFF7FEFF 		bl	MMA8652_Read
ARM GAS  C:\Users\MARLOK~1\AppData\Local\Temp\ccVNfKl6.s 			page 12


 438              	.LVL72:
 439              		.loc 1 155 0 discriminator 2
 440 0022 0028     		cmp	r0, #0
 441 0024 02D1     		bne	.L34
 442              		.loc 1 155 0 is_stmt 0 discriminator 1
 443 0026 2878     		ldrb	r0, [r5]
 444              	.LVL73:
 445 0028 2040     		ands	r0, r4
 446 002a F4D1     		bne	.L35
 447              	.L34:
 156:MMA8652.c     ****     
 157:MMA8652.c     ****     return error;
 158:MMA8652.c     **** }
 448              		.loc 1 158 0 is_stmt 1
 449              		@ sp needed
 450 002c 3EBD     		pop	{r1, r2, r3, r4, r5, pc}
 451              		.cfi_endproc
 452              	.LFE40:
 453              		.size	MMA8652_Reset, .-MMA8652_Reset
 454              		.section	.text.MMA8652_ConvertCountToMg,"ax",%progbits
 455              		.align	1
 456              		.global	MMA8652_ConvertCountToMg
 457              		.code	16
 458              		.thumb_func
 459              		.type	MMA8652_ConvertCountToMg, %function
 460              	MMA8652_ConvertCountToMg:
 461              	.LFB42:
 159:MMA8652.c     **** 
 160:MMA8652.c     **** uint32_t MMA8652_ReadAcc(int16_t* acc)
 161:MMA8652.c     **** {
 162:MMA8652.c     ****     uint16_t acc_count[3];
 163:MMA8652.c     ****     uint8_t temp;
 164:MMA8652.c     ****     uint32_t error;
 165:MMA8652.c     **** 
 166:MMA8652.c     ****     // Read X, Y, Z data in continuous mode 
 167:MMA8652.c     ****     if ((error = I2C_I2CMasterSendStart(MMA8652_ADDR, I2C_WRITE, I2C_TIMEOUT)) != 0) {
 168:MMA8652.c     ****         I2C_I2CMasterSendStop(I2C_TIMEOUT);
 169:MMA8652.c     ****         return error;
 170:MMA8652.c     ****     }
 171:MMA8652.c     ****     
 172:MMA8652.c     ****     if ((error = I2C_I2CMasterWriteByte(0x01, I2C_TIMEOUT)) != 0) {
 173:MMA8652.c     ****         I2C_I2CMasterSendStop(I2C_TIMEOUT);
 174:MMA8652.c     ****         return error;
 175:MMA8652.c     ****     }
 176:MMA8652.c     **** 
 177:MMA8652.c     ****     if ((error = I2C_I2CMasterSendRestart(MMA8652_ADDR, I2C_READ, I2C_TIMEOUT)) != 0) {
 178:MMA8652.c     ****         I2C_I2CMasterSendStop(I2C_TIMEOUT);
 179:MMA8652.c     ****         return error;
 180:MMA8652.c     ****     }
 181:MMA8652.c     **** 
 182:MMA8652.c     ****     if ((error = I2C_I2CMasterReadByte(I2C_ACK, &temp, I2C_TIMEOUT)) != 0) {
 183:MMA8652.c     ****         I2C_I2CMasterSendStop(I2C_TIMEOUT);
 184:MMA8652.c     ****         return error;
 185:MMA8652.c     ****     }
 186:MMA8652.c     ****     acc_count[0] = temp << 8;
 187:MMA8652.c     **** 
 188:MMA8652.c     ****     if ((error = I2C_I2CMasterReadByte(I2C_ACK, &temp, I2C_TIMEOUT)) != 0) {
ARM GAS  C:\Users\MARLOK~1\AppData\Local\Temp\ccVNfKl6.s 			page 13


 189:MMA8652.c     ****         I2C_I2CMasterSendStop(I2C_TIMEOUT);
 190:MMA8652.c     ****         return error;
 191:MMA8652.c     ****     }
 192:MMA8652.c     ****     acc_count[0] |= temp;
 193:MMA8652.c     **** 
 194:MMA8652.c     ****     if ((error = I2C_I2CMasterReadByte(I2C_ACK, &temp, I2C_TIMEOUT)) != 0) {
 195:MMA8652.c     ****         I2C_I2CMasterSendStop(I2C_TIMEOUT);
 196:MMA8652.c     ****         return error;
 197:MMA8652.c     ****     }
 198:MMA8652.c     ****     acc_count[1] = temp << 8;
 199:MMA8652.c     **** 
 200:MMA8652.c     ****     if ((error = I2C_I2CMasterReadByte(I2C_ACK, &temp, I2C_TIMEOUT)) != 0) {
 201:MMA8652.c     ****         I2C_I2CMasterSendStop(I2C_TIMEOUT);
 202:MMA8652.c     ****         return error;
 203:MMA8652.c     ****     }
 204:MMA8652.c     ****     acc_count[1] |= temp;
 205:MMA8652.c     **** 
 206:MMA8652.c     ****     if ((error = I2C_I2CMasterReadByte(I2C_ACK, &temp, I2C_TIMEOUT)) != 0) {
 207:MMA8652.c     ****         I2C_I2CMasterSendStop(I2C_TIMEOUT);
 208:MMA8652.c     ****         return error;
 209:MMA8652.c     ****     }
 210:MMA8652.c     ****     acc_count[2] = temp << 8;
 211:MMA8652.c     **** 
 212:MMA8652.c     ****     if ((error = I2C_I2CMasterReadByte(I2C_NACK, &temp, I2C_TIMEOUT)) != 0) {
 213:MMA8652.c     ****         I2C_I2CMasterSendStop(I2C_TIMEOUT);
 214:MMA8652.c     ****         return error;
 215:MMA8652.c     ****     }
 216:MMA8652.c     ****     acc_count[2] |= temp;
 217:MMA8652.c     **** 
 218:MMA8652.c     ****     if ((error = I2C_I2CMasterSendStop(I2C_TIMEOUT)) != 0) {
 219:MMA8652.c     ****         return error;
 220:MMA8652.c     ****     }
 221:MMA8652.c     **** 
 222:MMA8652.c     ****     // Count is stored in 2 complementers, convert to signed mg
 223:MMA8652.c     ****     MMA8652_ConvertCountToMg(acc, acc_count);
 224:MMA8652.c     ****     
 225:MMA8652.c     ****     return error;
 226:MMA8652.c     **** }
 227:MMA8652.c     **** 
 228:MMA8652.c     **** void MMA8652_ConvertCountToMg(int16_t* acceleration, uint16_t* raw_count)
 229:MMA8652.c     **** {
 462              		.loc 1 229 0
 463              		.cfi_startproc
 464              		@ args = 0, pretend = 0, frame = 0
 465              		@ frame_needed = 0, uses_anonymous_args = 0
 466              	.LVL74:
 467 0000 70B5     		push	{r4, r5, r6, lr}
 468              		.cfi_def_cfa_offset 16
 469              		.cfi_offset 4, -16
 470              		.cfi_offset 5, -12
 471              		.cfi_offset 6, -8
 472              		.cfi_offset 14, -4
 230:MMA8652.c     ****     unsigned int i;
 231:MMA8652.c     ****     int sign;
 232:MMA8652.c     ****     
 233:MMA8652.c     ****     for (i = 0; i < 3; ++i) {
 234:MMA8652.c     ****         sign = 1;
ARM GAS  C:\Users\MARLOK~1\AppData\Local\Temp\ccVNfKl6.s 			page 14


 235:MMA8652.c     ****         if ((raw_count[i] >> 8) > 0x7F) {
 236:MMA8652.c     ****             sign = -1;
 237:MMA8652.c     ****             raw_count[i] = ~raw_count[i] + 1;
 238:MMA8652.c     ****         }
 239:MMA8652.c     ****         raw_count[i] = raw_count[i] >> 4;
 240:MMA8652.c     ****         acceleration[i] = sign * ((uint32_t)(1000 * raw_count[i] + 512) >> 10);
 473              		.loc 1 240 0
 474 0002 FA24     		movs	r4, #250
 229:MMA8652.c     ****     unsigned int i;
 475              		.loc 1 229 0
 476 0004 0022     		movs	r2, #0
 477              		.loc 1 240 0
 478 0006 A400     		lsls	r4, r4, #2
 479              	.LVL75:
 480              	.L41:
 235:MMA8652.c     ****             sign = -1;
 481              		.loc 1 235 0
 482 0008 8B5A     		ldrh	r3, [r1, r2]
 234:MMA8652.c     ****         if ((raw_count[i] >> 8) > 0x7F) {
 483              		.loc 1 234 0
 484 000a 0125     		movs	r5, #1
 235:MMA8652.c     ****             sign = -1;
 485              		.loc 1 235 0
 486 000c 1E0A     		lsrs	r6, r3, #8
 487 000e 7F2E     		cmp	r6, #127
 488 0010 02D9     		bls	.L40
 489              	.LVL76:
 237:MMA8652.c     ****         }
 490              		.loc 1 237 0
 491 0012 5B42     		rsbs	r3, r3, #0
 492 0014 8B52     		strh	r3, [r1, r2]
 236:MMA8652.c     ****             raw_count[i] = ~raw_count[i] + 1;
 493              		.loc 1 236 0
 494 0016 023D     		subs	r5, r5, #2
 495              	.LVL77:
 496              	.L40:
 497              		.loc 1 240 0 discriminator 2
 498 0018 8026     		movs	r6, #128
 239:MMA8652.c     ****         acceleration[i] = sign * ((uint32_t)(1000 * raw_count[i] + 512) >> 10);
 499              		.loc 1 239 0 discriminator 2
 500 001a 8B5A     		ldrh	r3, [r1, r2]
 501              		.loc 1 240 0 discriminator 2
 502 001c B600     		lsls	r6, r6, #2
 239:MMA8652.c     ****         acceleration[i] = sign * ((uint32_t)(1000 * raw_count[i] + 512) >> 10);
 503              		.loc 1 239 0 discriminator 2
 504 001e 1B09     		lsrs	r3, r3, #4
 505 0020 8B52     		strh	r3, [r1, r2]
 506              		.loc 1 240 0 discriminator 2
 507 0022 6343     		muls	r3, r4
 508 0024 9B19     		adds	r3, r3, r6
 509 0026 9B0A     		lsrs	r3, r3, #10
 510 0028 6B43     		muls	r3, r5
 511 002a 8352     		strh	r3, [r0, r2]
 512 002c 0232     		adds	r2, r2, #2
 233:MMA8652.c     ****         sign = 1;
 513              		.loc 1 233 0 discriminator 2
 514 002e 062A     		cmp	r2, #6
ARM GAS  C:\Users\MARLOK~1\AppData\Local\Temp\ccVNfKl6.s 			page 15


 515 0030 EAD1     		bne	.L41
 241:MMA8652.c     ****     }
 242:MMA8652.c     **** }
 516              		.loc 1 242 0
 517              		@ sp needed
 518              	.LVL78:
 519 0032 70BD     		pop	{r4, r5, r6, pc}
 520              		.cfi_endproc
 521              	.LFE42:
 522              		.size	MMA8652_ConvertCountToMg, .-MMA8652_ConvertCountToMg
 523              		.section	.text.MMA8652_ReadAcc,"ax",%progbits
 524              		.align	1
 525              		.global	MMA8652_ReadAcc
 526              		.code	16
 527              		.thumb_func
 528              		.type	MMA8652_ReadAcc, %function
 529              	MMA8652_ReadAcc:
 530              	.LFB41:
 161:MMA8652.c     ****     uint16_t acc_count[3];
 531              		.loc 1 161 0
 532              		.cfi_startproc
 533              		@ args = 0, pretend = 0, frame = 16
 534              		@ frame_needed = 0, uses_anonymous_args = 0
 535              	.LVL79:
 536 0000 F0B5     		push	{r4, r5, r6, r7, lr}
 537              		.cfi_def_cfa_offset 20
 538              		.cfi_offset 4, -20
 539              		.cfi_offset 5, -16
 540              		.cfi_offset 6, -12
 541              		.cfi_offset 7, -8
 542              		.cfi_offset 14, -4
 167:MMA8652.c     ****         I2C_I2CMasterSendStop(I2C_TIMEOUT);
 543              		.loc 1 167 0
 544 0002 C822     		movs	r2, #200
 161:MMA8652.c     ****     uint16_t acc_count[3];
 545              		.loc 1 161 0
 546 0004 85B0     		sub	sp, sp, #20
 547              		.cfi_def_cfa_offset 40
 161:MMA8652.c     ****     uint16_t acc_count[3];
 548              		.loc 1 161 0
 549 0006 0600     		movs	r6, r0
 167:MMA8652.c     ****         I2C_I2CMasterSendStop(I2C_TIMEOUT);
 550              		.loc 1 167 0
 551 0008 0021     		movs	r1, #0
 552 000a 1D20     		movs	r0, #29
 553              	.LVL80:
 554 000c FFF7FEFF 		bl	I2C_I2CMasterSendStart
 555              	.LVL81:
 556 0010 041E     		subs	r4, r0, #0
 557              	.LVL82:
 558 0012 45D1     		bne	.L57
 172:MMA8652.c     ****         I2C_I2CMasterSendStop(I2C_TIMEOUT);
 559              		.loc 1 172 0
 560 0014 C821     		movs	r1, #200
 561 0016 0120     		movs	r0, #1
 562              	.LVL83:
 563 0018 FFF7FEFF 		bl	I2C_I2CMasterWriteByte
ARM GAS  C:\Users\MARLOK~1\AppData\Local\Temp\ccVNfKl6.s 			page 16


 564              	.LVL84:
 565 001c 041E     		subs	r4, r0, #0
 566              	.LVL85:
 567 001e 3FD1     		bne	.L57
 177:MMA8652.c     ****         I2C_I2CMasterSendStop(I2C_TIMEOUT);
 568              		.loc 1 177 0
 569 0020 C822     		movs	r2, #200
 570 0022 FF21     		movs	r1, #255
 571 0024 1D20     		movs	r0, #29
 572              	.LVL86:
 573 0026 FFF7FEFF 		bl	I2C_I2CMasterSendRestart
 574              	.LVL87:
 575 002a 041E     		subs	r4, r0, #0
 576              	.LVL88:
 577 002c 38D1     		bne	.L57
 182:MMA8652.c     ****         I2C_I2CMasterSendStop(I2C_TIMEOUT);
 578              		.loc 1 182 0
 579 002e 6B46     		mov	r3, sp
 580 0030 DF1D     		adds	r7, r3, #7
 581 0032 C822     		movs	r2, #200
 582 0034 3900     		movs	r1, r7
 583 0036 FFF7FEFF 		bl	I2C_I2CMasterReadByte
 584              	.LVL89:
 585 003a 041E     		subs	r4, r0, #0
 586              	.LVL90:
 587 003c 30D1     		bne	.L57
 186:MMA8652.c     **** 
 588              		.loc 1 186 0
 589 003e 3B78     		ldrb	r3, [r7]
 590 0040 02AD     		add	r5, sp, #8
 591 0042 1B02     		lsls	r3, r3, #8
 188:MMA8652.c     ****         I2C_I2CMasterSendStop(I2C_TIMEOUT);
 592              		.loc 1 188 0
 593 0044 C822     		movs	r2, #200
 594 0046 3900     		movs	r1, r7
 186:MMA8652.c     **** 
 595              		.loc 1 186 0
 596 0048 2B80     		strh	r3, [r5]
 188:MMA8652.c     ****         I2C_I2CMasterSendStop(I2C_TIMEOUT);
 597              		.loc 1 188 0
 598 004a FFF7FEFF 		bl	I2C_I2CMasterReadByte
 599              	.LVL91:
 600 004e 041E     		subs	r4, r0, #0
 601              	.LVL92:
 602 0050 26D1     		bne	.L57
 192:MMA8652.c     **** 
 603              		.loc 1 192 0
 604 0052 3A78     		ldrb	r2, [r7]
 605 0054 2B88     		ldrh	r3, [r5]
 194:MMA8652.c     ****         I2C_I2CMasterSendStop(I2C_TIMEOUT);
 606              		.loc 1 194 0
 607 0056 3900     		movs	r1, r7
 192:MMA8652.c     **** 
 608              		.loc 1 192 0
 609 0058 1343     		orrs	r3, r2
 194:MMA8652.c     ****         I2C_I2CMasterSendStop(I2C_TIMEOUT);
 610              		.loc 1 194 0
ARM GAS  C:\Users\MARLOK~1\AppData\Local\Temp\ccVNfKl6.s 			page 17


 611 005a C822     		movs	r2, #200
 192:MMA8652.c     **** 
 612              		.loc 1 192 0
 613 005c 2B80     		strh	r3, [r5]
 194:MMA8652.c     ****         I2C_I2CMasterSendStop(I2C_TIMEOUT);
 614              		.loc 1 194 0
 615 005e FFF7FEFF 		bl	I2C_I2CMasterReadByte
 616              	.LVL93:
 617 0062 041E     		subs	r4, r0, #0
 618              	.LVL94:
 619 0064 1CD1     		bne	.L57
 198:MMA8652.c     **** 
 620              		.loc 1 198 0
 621 0066 3B78     		ldrb	r3, [r7]
 200:MMA8652.c     ****         I2C_I2CMasterSendStop(I2C_TIMEOUT);
 622              		.loc 1 200 0
 623 0068 C822     		movs	r2, #200
 198:MMA8652.c     **** 
 624              		.loc 1 198 0
 625 006a 1B02     		lsls	r3, r3, #8
 200:MMA8652.c     ****         I2C_I2CMasterSendStop(I2C_TIMEOUT);
 626              		.loc 1 200 0
 627 006c 3900     		movs	r1, r7
 198:MMA8652.c     **** 
 628              		.loc 1 198 0
 629 006e 6B80     		strh	r3, [r5, #2]
 200:MMA8652.c     ****         I2C_I2CMasterSendStop(I2C_TIMEOUT);
 630              		.loc 1 200 0
 631 0070 FFF7FEFF 		bl	I2C_I2CMasterReadByte
 632              	.LVL95:
 633 0074 041E     		subs	r4, r0, #0
 634              	.LVL96:
 635 0076 13D1     		bne	.L57
 204:MMA8652.c     **** 
 636              		.loc 1 204 0
 637 0078 3A78     		ldrb	r2, [r7]
 638 007a 6B88     		ldrh	r3, [r5, #2]
 206:MMA8652.c     ****         I2C_I2CMasterSendStop(I2C_TIMEOUT);
 639              		.loc 1 206 0
 640 007c 3900     		movs	r1, r7
 204:MMA8652.c     **** 
 641              		.loc 1 204 0
 642 007e 1343     		orrs	r3, r2
 206:MMA8652.c     ****         I2C_I2CMasterSendStop(I2C_TIMEOUT);
 643              		.loc 1 206 0
 644 0080 C822     		movs	r2, #200
 204:MMA8652.c     **** 
 645              		.loc 1 204 0
 646 0082 6B80     		strh	r3, [r5, #2]
 206:MMA8652.c     ****         I2C_I2CMasterSendStop(I2C_TIMEOUT);
 647              		.loc 1 206 0
 648 0084 FFF7FEFF 		bl	I2C_I2CMasterReadByte
 649              	.LVL97:
 650 0088 041E     		subs	r4, r0, #0
 651              	.LVL98:
 652 008a 09D1     		bne	.L57
 210:MMA8652.c     **** 
ARM GAS  C:\Users\MARLOK~1\AppData\Local\Temp\ccVNfKl6.s 			page 18


 653              		.loc 1 210 0
 654 008c 3B78     		ldrb	r3, [r7]
 212:MMA8652.c     ****         I2C_I2CMasterSendStop(I2C_TIMEOUT);
 655              		.loc 1 212 0
 656 008e C822     		movs	r2, #200
 210:MMA8652.c     **** 
 657              		.loc 1 210 0
 658 0090 1B02     		lsls	r3, r3, #8
 212:MMA8652.c     ****         I2C_I2CMasterSendStop(I2C_TIMEOUT);
 659              		.loc 1 212 0
 660 0092 3900     		movs	r1, r7
 661 0094 FF20     		movs	r0, #255
 662              	.LVL99:
 210:MMA8652.c     **** 
 663              		.loc 1 210 0
 664 0096 AB80     		strh	r3, [r5, #4]
 212:MMA8652.c     ****         I2C_I2CMasterSendStop(I2C_TIMEOUT);
 665              		.loc 1 212 0
 666 0098 FFF7FEFF 		bl	I2C_I2CMasterReadByte
 667              	.LVL100:
 668 009c 041E     		subs	r4, r0, #0
 669              	.LVL101:
 670 009e 04D0     		beq	.L54
 671              	.L57:
 213:MMA8652.c     ****         return error;
 672              		.loc 1 213 0
 673 00a0 C820     		movs	r0, #200
 674              	.LVL102:
 675 00a2 FFF7FEFF 		bl	I2C_I2CMasterSendStop
 676              	.LVL103:
 214:MMA8652.c     ****     }
 677              		.loc 1 214 0
 678 00a6 2000     		movs	r0, r4
 679 00a8 0DE0     		b	.L46
 680              	.LVL104:
 681              	.L54:
 216:MMA8652.c     **** 
 682              		.loc 1 216 0
 683 00aa AB88     		ldrh	r3, [r5, #4]
 684 00ac 3A78     		ldrb	r2, [r7]
 218:MMA8652.c     ****         return error;
 685              		.loc 1 218 0
 686 00ae C820     		movs	r0, #200
 687              	.LVL105:
 216:MMA8652.c     **** 
 688              		.loc 1 216 0
 689 00b0 1343     		orrs	r3, r2
 690 00b2 AB80     		strh	r3, [r5, #4]
 218:MMA8652.c     ****         return error;
 691              		.loc 1 218 0
 692 00b4 FFF7FEFF 		bl	I2C_I2CMasterSendStop
 693              	.LVL106:
 694 00b8 0028     		cmp	r0, #0
 695 00ba 04D1     		bne	.L46
 223:MMA8652.c     ****     
 696              		.loc 1 223 0
 697 00bc 3000     		movs	r0, r6
ARM GAS  C:\Users\MARLOK~1\AppData\Local\Temp\ccVNfKl6.s 			page 19


 698              	.LVL107:
 699 00be 2900     		movs	r1, r5
 700 00c0 FFF7FEFF 		bl	MMA8652_ConvertCountToMg
 701              	.LVL108:
 225:MMA8652.c     **** }
 702              		.loc 1 225 0
 703 00c4 0020     		movs	r0, #0
 704              	.L46:
 226:MMA8652.c     **** 
 705              		.loc 1 226 0
 706 00c6 05B0     		add	sp, sp, #20
 707              		@ sp needed
 708              	.LVL109:
 709 00c8 F0BD     		pop	{r4, r5, r6, r7, pc}
 710              		.cfi_endproc
 711              	.LFE41:
 712              		.size	MMA8652_ReadAcc, .-MMA8652_ReadAcc
 713              		.section	.text.MMA8652_ReadMultipleBytes,"ax",%progbits
 714              		.align	1
 715              		.global	MMA8652_ReadMultipleBytes
 716              		.code	16
 717              		.thumb_func
 718              		.type	MMA8652_ReadMultipleBytes, %function
 719              	MMA8652_ReadMultipleBytes:
 720              	.LFB43:
 243:MMA8652.c     **** 
 244:MMA8652.c     **** uint32_t MMA8652_ReadMultipleBytes(uint8_t register_addr, uint8_t* data, size_t data_len)
 245:MMA8652.c     **** {
 721              		.loc 1 245 0
 722              		.cfi_startproc
 723              		@ args = 0, pretend = 0, frame = 0
 724              		@ frame_needed = 0, uses_anonymous_args = 0
 725              	.LVL110:
 726 0000 F8B5     		push	{r3, r4, r5, r6, r7, lr}
 727              		.cfi_def_cfa_offset 24
 728              		.cfi_offset 3, -24
 729              		.cfi_offset 4, -20
 730              		.cfi_offset 5, -16
 731              		.cfi_offset 6, -12
 732              		.cfi_offset 7, -8
 733              		.cfi_offset 14, -4
 734              		.loc 1 245 0
 735 0002 0500     		movs	r5, r0
 736 0004 0F00     		movs	r7, r1
 737 0006 1600     		movs	r6, r2
 246:MMA8652.c     ****     unsigned int i;
 247:MMA8652.c     ****     uint32_t error;
 248:MMA8652.c     ****     uint8_t ack;
 249:MMA8652.c     **** 
 250:MMA8652.c     ****     if ((error = I2C_I2CMasterSendStart(MMA8652_ADDR, I2C_WRITE, I2C_TIMEOUT)) != 0) {
 738              		.loc 1 250 0
 739 0008 0021     		movs	r1, #0
 740              	.LVL111:
 741 000a C822     		movs	r2, #200
 742              	.LVL112:
 743 000c 1D20     		movs	r0, #29
 744              	.LVL113:
ARM GAS  C:\Users\MARLOK~1\AppData\Local\Temp\ccVNfKl6.s 			page 20


 745 000e FFF7FEFF 		bl	I2C_I2CMasterSendStart
 746              	.LVL114:
 747 0012 041E     		subs	r4, r0, #0
 748              	.LVL115:
 749 0014 0CD1     		bne	.L67
 251:MMA8652.c     ****         I2C_I2CMasterSendStop(I2C_TIMEOUT);
 252:MMA8652.c     ****         return error;
 253:MMA8652.c     ****     }
 254:MMA8652.c     ****     
 255:MMA8652.c     ****     if ((error = I2C_I2CMasterWriteByte(register_addr, I2C_TIMEOUT)) != 0) {
 750              		.loc 1 255 0
 751 0016 C821     		movs	r1, #200
 752 0018 2800     		movs	r0, r5
 753              	.LVL116:
 754 001a FFF7FEFF 		bl	I2C_I2CMasterWriteByte
 755              	.LVL117:
 756 001e 041E     		subs	r4, r0, #0
 757              	.LVL118:
 758 0020 06D1     		bne	.L67
 256:MMA8652.c     ****         I2C_I2CMasterSendStop(I2C_TIMEOUT);
 257:MMA8652.c     ****         return error;
 258:MMA8652.c     ****     }
 259:MMA8652.c     ****     
 260:MMA8652.c     ****     if ((error = I2C_I2CMasterSendRestart(MMA8652_ADDR, I2C_READ, I2C_TIMEOUT)) != 0) {
 759              		.loc 1 260 0
 760 0022 C822     		movs	r2, #200
 761 0024 FF21     		movs	r1, #255
 762 0026 1D20     		movs	r0, #29
 763              	.LVL119:
 764 0028 FFF7FEFF 		bl	I2C_I2CMasterSendRestart
 765              	.LVL120:
 766 002c 041E     		subs	r4, r0, #0
 767              	.LVL121:
 768 002e 05D0     		beq	.L63
 769              	.L67:
 261:MMA8652.c     ****         I2C_I2CMasterSendStop(I2C_TIMEOUT);
 770              		.loc 1 261 0
 771 0030 C820     		movs	r0, #200
 772              	.LVL122:
 773 0032 FFF7FEFF 		bl	I2C_I2CMasterSendStop
 774              	.LVL123:
 262:MMA8652.c     ****         return error;
 775              		.loc 1 262 0
 776 0036 2000     		movs	r0, r4
 777 0038 16E0     		b	.L60
 778              	.LVL124:
 779              	.L64:
 263:MMA8652.c     ****     }
 264:MMA8652.c     ****     
 265:MMA8652.c     ****     for (i = 0; i < data_len; ++i) {
 780              		.loc 1 265 0 discriminator 2
 781 003a 0134     		adds	r4, r4, #1
 782              	.LVL125:
 783              	.L63:
 784              		.loc 1 265 0 is_stmt 0 discriminator 1
 785 003c B442     		cmp	r4, r6
 786 003e 10D0     		beq	.L68
ARM GAS  C:\Users\MARLOK~1\AppData\Local\Temp\ccVNfKl6.s 			page 21


 787              	.LVL126:
 266:MMA8652.c     ****         if (i == data_len - 1) {
 267:MMA8652.c     ****             ack = I2C_NACK;
 268:MMA8652.c     ****         } else {
 269:MMA8652.c     ****             ack = I2C_ACK;
 270:MMA8652.c     ****         }
 271:MMA8652.c     ****         
 272:MMA8652.c     ****         if ((error = I2C_I2CMasterReadByte(ack, &data[i], I2C_TIMEOUT)) != 0) {
 788              		.loc 1 272 0 is_stmt 1
 789 0040 701E     		subs	r0, r6, #1
 790              	.LVL127:
 791 0042 001B     		subs	r0, r0, r4
 792 0044 4342     		rsbs	r3, r0, #0
 793 0046 5841     		adcs	r0, r0, r3
 794 0048 4042     		rsbs	r0, r0, #0
 795 004a 3919     		adds	r1, r7, r4
 796 004c C0B2     		uxtb	r0, r0
 797 004e C822     		movs	r2, #200
 798 0050 FFF7FEFF 		bl	I2C_I2CMasterReadByte
 799              	.LVL128:
 800 0054 051E     		subs	r5, r0, #0
 801              	.LVL129:
 802 0056 F0D0     		beq	.L64
 273:MMA8652.c     ****             I2C_I2CMasterSendStop(I2C_TIMEOUT);
 803              		.loc 1 273 0
 804 0058 C820     		movs	r0, #200
 805              	.LVL130:
 806 005a FFF7FEFF 		bl	I2C_I2CMasterSendStop
 807              	.LVL131:
 272:MMA8652.c     ****             I2C_I2CMasterSendStop(I2C_TIMEOUT);
 808              		.loc 1 272 0
 809 005e 2800     		movs	r0, r5
 274:MMA8652.c     ****             return error;
 810              		.loc 1 274 0
 811 0060 02E0     		b	.L60
 812              	.LVL132:
 813              	.L68:
 275:MMA8652.c     ****         }
 276:MMA8652.c     ****     }
 277:MMA8652.c     ****     
 278:MMA8652.c     ****     error = I2C_I2CMasterSendStop(I2C_TIMEOUT);
 814              		.loc 1 278 0
 815 0062 C820     		movs	r0, #200
 816              	.LVL133:
 817 0064 FFF7FEFF 		bl	I2C_I2CMasterSendStop
 818              	.LVL134:
 819              	.L60:
 279:MMA8652.c     ****     return error;
 280:MMA8652.c     **** }
 820              		.loc 1 280 0
 821              		@ sp needed
 822              	.LVL135:
 823              	.LVL136:
 824 0068 F8BD     		pop	{r3, r4, r5, r6, r7, pc}
 825              		.cfi_endproc
 826              	.LFE43:
 827              		.size	MMA8652_ReadMultipleBytes, .-MMA8652_ReadMultipleBytes
ARM GAS  C:\Users\MARLOK~1\AppData\Local\Temp\ccVNfKl6.s 			page 22


 828              		.section	.text.MMA8652_PulseSetup,"ax",%progbits
 829              		.align	1
 830              		.global	MMA8652_PulseSetup
 831              		.code	16
 832              		.thumb_func
 833              		.type	MMA8652_PulseSetup, %function
 834              	MMA8652_PulseSetup:
 835              	.LFB44:
 281:MMA8652.c     **** 
 282:MMA8652.c     **** uint32_t MMA8652_PulseSetup(uint8_t thresholdx, uint8_t thresholdy, uint8_t thresholdz, uint8_t tim
 283:MMA8652.c     **** {
 836              		.loc 1 283 0
 837              		.cfi_startproc
 838              		@ args = 0, pretend = 0, frame = 0
 839              		@ frame_needed = 0, uses_anonymous_args = 0
 840              	.LVL137:
 841 0000 F8B5     		push	{r3, r4, r5, r6, r7, lr}
 842              		.cfi_def_cfa_offset 24
 843              		.cfi_offset 3, -24
 844              		.cfi_offset 4, -20
 845              		.cfi_offset 5, -16
 846              		.cfi_offset 6, -12
 847              		.cfi_offset 7, -8
 848              		.cfi_offset 14, -4
 849              		.loc 1 283 0
 850 0002 0700     		movs	r7, r0
 851 0004 0E00     		movs	r6, r1
 852 0006 1500     		movs	r5, r2
 853 0008 1C00     		movs	r4, r3
 284:MMA8652.c     ****     uint32_t error;
 285:MMA8652.c     ****     
 286:MMA8652.c     ****     error = MMA8652_StandByMode();
 854              		.loc 1 286 0
 855 000a FFF7FEFF 		bl	MMA8652_StandByMode
 856              	.LVL138:
 287:MMA8652.c     ****     if (error) {
 857              		.loc 1 287 0
 858 000e 0028     		cmp	r0, #0
 859 0010 25D1     		bne	.L70
 288:MMA8652.c     ****         return error;
 289:MMA8652.c     ****     }
 290:MMA8652.c     ****    
 291:MMA8652.c     ****     //Enable Single Pulse on X, Y, Z
 292:MMA8652.c     ****     error = MMA8652_Write(MMA8652_PULSE_CFG, 0x15);
 860              		.loc 1 292 0
 861 0012 1521     		movs	r1, #21
 862 0014 2130     		adds	r0, r0, #33
 863              	.LVL139:
 864 0016 FFF7FEFF 		bl	MMA8652_Write
 865              	.LVL140:
 293:MMA8652.c     ****     if (error) {
 866              		.loc 1 293 0
 867 001a 0028     		cmp	r0, #0
 868 001c 1FD1     		bne	.L70
 294:MMA8652.c     ****         return error;
 295:MMA8652.c     ****     }
 296:MMA8652.c     **** 
ARM GAS  C:\Users\MARLOK~1\AppData\Local\Temp\ccVNfKl6.s 			page 23


 297:MMA8652.c     ****     // Threshold X, Y, Z 0 - 127 (7 bits unsigned ), 63mg / LSB
 298:MMA8652.c     ****     error = MMA8652_Write(MMA8652_PULSE_THSX, thresholdx);
 869              		.loc 1 298 0
 870 001e 3900     		movs	r1, r7
 871 0020 2330     		adds	r0, r0, #35
 872              	.LVL141:
 873 0022 FFF7FEFF 		bl	MMA8652_Write
 874              	.LVL142:
 299:MMA8652.c     ****     if (error) {
 875              		.loc 1 299 0
 876 0026 0028     		cmp	r0, #0
 877 0028 19D1     		bne	.L70
 300:MMA8652.c     ****         return error;
 301:MMA8652.c     ****     }
 302:MMA8652.c     **** 
 303:MMA8652.c     ****     error = MMA8652_Write(MMA8652_PULSE_THSY, thresholdy);
 878              		.loc 1 303 0
 879 002a 3100     		movs	r1, r6
 880 002c 2430     		adds	r0, r0, #36
 881              	.LVL143:
 882 002e FFF7FEFF 		bl	MMA8652_Write
 883              	.LVL144:
 304:MMA8652.c     ****     if (error) {
 884              		.loc 1 304 0
 885 0032 0028     		cmp	r0, #0
 886 0034 13D1     		bne	.L70
 305:MMA8652.c     ****         return error;
 306:MMA8652.c     ****     }
 307:MMA8652.c     **** 
 308:MMA8652.c     ****     error = MMA8652_Write(MMA8652_PULSE_THSZ, thresholdz);
 887              		.loc 1 308 0
 888 0036 2900     		movs	r1, r5
 889 0038 2530     		adds	r0, r0, #37
 890              	.LVL145:
 891 003a FFF7FEFF 		bl	MMA8652_Write
 892              	.LVL146:
 309:MMA8652.c     ****     if (error) {
 893              		.loc 1 309 0
 894 003e 0028     		cmp	r0, #0
 895 0040 0DD1     		bne	.L70
 310:MMA8652.c     ****         return error;
 311:MMA8652.c     ****     }
 312:MMA8652.c     **** 
 313:MMA8652.c     ****     // 0 - 255 8 bits, 0.625 ms/step, max: 0.159 sec
 314:MMA8652.c     ****     error = MMA8652_Write(MMA8652_PULSE_TMLT, timelimit);
 896              		.loc 1 314 0
 897 0042 2100     		movs	r1, r4
 898 0044 2630     		adds	r0, r0, #38
 899              	.LVL147:
 900 0046 FFF7FEFF 		bl	MMA8652_Write
 901              	.LVL148:
 315:MMA8652.c     ****     if (error) {
 902              		.loc 1 315 0
 903 004a 0028     		cmp	r0, #0
 904 004c 07D1     		bne	.L70
 316:MMA8652.c     ****         return error;
 317:MMA8652.c     ****     }
ARM GAS  C:\Users\MARLOK~1\AppData\Local\Temp\ccVNfKl6.s 			page 24


 318:MMA8652.c     **** 
 319:MMA8652.c     ****     // 0 - 255 8 bits, 1.25 ms/step, max: 0.318 sec - only for double taps?
 320:MMA8652.c     ****     error = MMA8652_Write(MMA8652_PULSE_LTCY, 0);
 905              		.loc 1 320 0
 906 004e 0100     		movs	r1, r0
 907 0050 2730     		adds	r0, r0, #39
 908              	.LVL149:
 909 0052 FFF7FEFF 		bl	MMA8652_Write
 910              	.LVL150:
 321:MMA8652.c     ****     if (error) {
 911              		.loc 1 321 0
 912 0056 0028     		cmp	r0, #0
 913 0058 01D1     		bne	.L70
 322:MMA8652.c     ****         return error;
 323:MMA8652.c     ****     }
 324:MMA8652.c     ****     
 325:MMA8652.c     ****     // Enter active mode
 326:MMA8652.c     ****     error = MMA8652_ActiveMode();
 914              		.loc 1 326 0
 915 005a FFF7FEFF 		bl	MMA8652_ActiveMode
 916              	.LVL151:
 917              	.L70:
 327:MMA8652.c     ****     return error;
 328:MMA8652.c     **** }
 918              		.loc 1 328 0
 919              		@ sp needed
 920 005e F8BD     		pop	{r3, r4, r5, r6, r7, pc}
 921              		.cfi_endproc
 922              	.LFE44:
 923              		.size	MMA8652_PulseSetup, .-MMA8652_PulseSetup
 924              		.section	.text.MMA8652_MotionSetup,"ax",%progbits
 925              		.align	1
 926              		.global	MMA8652_MotionSetup
 927              		.code	16
 928              		.thumb_func
 929              		.type	MMA8652_MotionSetup, %function
 930              	MMA8652_MotionSetup:
 931              	.LFB45:
 329:MMA8652.c     **** 
 330:MMA8652.c     **** uint32_t MMA8652_MotionSetup(uint8_t threshold, uint8_t debounce_count)
 331:MMA8652.c     **** {
 932              		.loc 1 331 0
 933              		.cfi_startproc
 934              		@ args = 0, pretend = 0, frame = 0
 935              		@ frame_needed = 0, uses_anonymous_args = 0
 936              	.LVL152:
 937 0000 70B5     		push	{r4, r5, r6, lr}
 938              		.cfi_def_cfa_offset 16
 939              		.cfi_offset 4, -16
 940              		.cfi_offset 5, -12
 941              		.cfi_offset 6, -8
 942              		.cfi_offset 14, -4
 943              		.loc 1 331 0
 944 0002 0500     		movs	r5, r0
 945 0004 0C00     		movs	r4, r1
 332:MMA8652.c     ****     uint32_t error;    
 333:MMA8652.c     ****     
ARM GAS  C:\Users\MARLOK~1\AppData\Local\Temp\ccVNfKl6.s 			page 25


 334:MMA8652.c     ****     error = MMA8652_StandByMode();
 946              		.loc 1 334 0
 947 0006 FFF7FEFF 		bl	MMA8652_StandByMode
 948              	.LVL153:
 335:MMA8652.c     ****     if (error) {
 949              		.loc 1 335 0
 950 000a 0028     		cmp	r0, #0
 951 000c 13D1     		bne	.L79
 336:MMA8652.c     ****         return error;
 337:MMA8652.c     ****     }
 338:MMA8652.c     ****    
 339:MMA8652.c     ****     // Event values not latched, set motion OR freefal events on X, Y, Z-t nem
 340:MMA8652.c     ****     error = MMA8652_Write(MMA8652_FF_MT_CFG, 0x58);
 952              		.loc 1 340 0
 953 000e 5821     		movs	r1, #88
 954 0010 1530     		adds	r0, r0, #21
 955              	.LVL154:
 956 0012 FFF7FEFF 		bl	MMA8652_Write
 957              	.LVL155:
 341:MMA8652.c     ****     if (error) {
 958              		.loc 1 341 0
 959 0016 0028     		cmp	r0, #0
 960 0018 0DD1     		bne	.L79
 342:MMA8652.c     ****         return error;
 343:MMA8652.c     ****     }
 344:MMA8652.c     **** 
 345:MMA8652.c     ****     // Set debounce counter to increments/decrements, set acceleration threshold
 346:MMA8652.c     ****     // 0 - 127, 7 bits, 0.063 g/LSB max range is +/-8 g
 347:MMA8652.c     ****     error = MMA8652_Write(MMA8652_FF_MT_THS, threshold);
 961              		.loc 1 347 0
 962 001a 2900     		movs	r1, r5
 963 001c 1730     		adds	r0, r0, #23
 964              	.LVL156:
 965 001e FFF7FEFF 		bl	MMA8652_Write
 966              	.LVL157:
 348:MMA8652.c     ****     if (error) {
 967              		.loc 1 348 0
 968 0022 0028     		cmp	r0, #0
 969 0024 07D1     		bne	.L79
 349:MMA8652.c     ****         return error;
 350:MMA8652.c     ****     }
 351:MMA8652.c     ****     
 352:MMA8652.c     ****     // Set debounce counter value
 353:MMA8652.c     ****     // 0 - 255 8 bits 2.5 ms / step @ 400 Hz
 354:MMA8652.c     ****     error = MMA8652_Write(MMA8652_FF_MT_COUNT, debounce_count);
 970              		.loc 1 354 0
 971 0026 2100     		movs	r1, r4
 972 0028 1830     		adds	r0, r0, #24
 973              	.LVL158:
 974 002a FFF7FEFF 		bl	MMA8652_Write
 975              	.LVL159:
 355:MMA8652.c     ****     if (error) {
 976              		.loc 1 355 0
 977 002e 0028     		cmp	r0, #0
 978 0030 01D1     		bne	.L79
 356:MMA8652.c     ****         return error;
 357:MMA8652.c     ****     }
ARM GAS  C:\Users\MARLOK~1\AppData\Local\Temp\ccVNfKl6.s 			page 26


 358:MMA8652.c     ****     
 359:MMA8652.c     ****     
 360:MMA8652.c     ****     // Enter active mode
 361:MMA8652.c     ****     error = MMA8652_ActiveMode();
 979              		.loc 1 361 0
 980 0032 FFF7FEFF 		bl	MMA8652_ActiveMode
 981              	.LVL160:
 982              	.L79:
 362:MMA8652.c     ****     return error;
 363:MMA8652.c     **** }
 983              		.loc 1 363 0
 984              		@ sp needed
 985 0036 70BD     		pop	{r4, r5, r6, pc}
 986              		.cfi_endproc
 987              	.LFE45:
 988              		.size	MMA8652_MotionSetup, .-MMA8652_MotionSetup
 989              		.section	.text.MMA8652_TransientSetup,"ax",%progbits
 990              		.align	1
 991              		.global	MMA8652_TransientSetup
 992              		.code	16
 993              		.thumb_func
 994              		.type	MMA8652_TransientSetup, %function
 995              	MMA8652_TransientSetup:
 996              	.LFB46:
 364:MMA8652.c     **** 
 365:MMA8652.c     **** uint32_t MMA8652_TransientSetup(uint8_t threshold, uint8_t debounce_count)
 366:MMA8652.c     **** {
 997              		.loc 1 366 0
 998              		.cfi_startproc
 999              		@ args = 0, pretend = 0, frame = 0
 1000              		@ frame_needed = 0, uses_anonymous_args = 0
 1001              	.LVL161:
 1002 0000 70B5     		push	{r4, r5, r6, lr}
 1003              		.cfi_def_cfa_offset 16
 1004              		.cfi_offset 4, -16
 1005              		.cfi_offset 5, -12
 1006              		.cfi_offset 6, -8
 1007              		.cfi_offset 14, -4
 1008              		.loc 1 366 0
 1009 0002 0500     		movs	r5, r0
 1010 0004 0C00     		movs	r4, r1
 367:MMA8652.c     ****     uint32_t error;
 368:MMA8652.c     ****     
 369:MMA8652.c     ****     error = MMA8652_StandByMode();
 1011              		.loc 1 369 0
 1012 0006 FFF7FEFF 		bl	MMA8652_StandByMode
 1013              	.LVL162:
 370:MMA8652.c     ****     if (error) {
 1014              		.loc 1 370 0
 1015 000a 0028     		cmp	r0, #0
 1016 000c 13D1     		bne	.L85
 371:MMA8652.c     ****         return error;
 372:MMA8652.c     ****     }
 373:MMA8652.c     ****    
 374:MMA8652.c     ****     // Event values not latched, set transient detection on X, Y, Z
 375:MMA8652.c     ****     error = MMA8652_Write(MMA8652_TRANSIENT_CFG, 0x0E);
 1017              		.loc 1 375 0
ARM GAS  C:\Users\MARLOK~1\AppData\Local\Temp\ccVNfKl6.s 			page 27


 1018 000e 0E21     		movs	r1, #14
 1019 0010 1D30     		adds	r0, r0, #29
 1020              	.LVL163:
 1021 0012 FFF7FEFF 		bl	MMA8652_Write
 1022              	.LVL164:
 376:MMA8652.c     ****     if (error) {
 1023              		.loc 1 376 0
 1024 0016 0028     		cmp	r0, #0
 1025 0018 0DD1     		bne	.L85
 377:MMA8652.c     ****         return error;
 378:MMA8652.c     ****     }
 379:MMA8652.c     **** 
 380:MMA8652.c     ****     // set debounce counter to increments/decrements, set transient threshold
 381:MMA8652.c     ****     // 0 - 127, 7 bits, 0.063 g/LSB max range is +/-8 g
 382:MMA8652.c     ****     error = MMA8652_Write(MMA8652_TRANSIENT_THS, threshold);
 1026              		.loc 1 382 0
 1027 001a 2900     		movs	r1, r5
 1028 001c 1F30     		adds	r0, r0, #31
 1029              	.LVL165:
 1030 001e FFF7FEFF 		bl	MMA8652_Write
 1031              	.LVL166:
 383:MMA8652.c     ****     if (error) {
 1032              		.loc 1 383 0
 1033 0022 0028     		cmp	r0, #0
 1034 0024 07D1     		bne	.L85
 384:MMA8652.c     ****         return error;
 385:MMA8652.c     ****     }
 386:MMA8652.c     ****     
 387:MMA8652.c     ****     // Set tranisent debounce counter value
 388:MMA8652.c     ****     // 0 - 255 8 bits 2.5 ms / step @ 400 Hz
 389:MMA8652.c     ****     error = MMA8652_Write(MMA8652_TRANSIENT_COUNT, debounce_count);
 1035              		.loc 1 389 0
 1036 0026 2100     		movs	r1, r4
 1037 0028 2030     		adds	r0, r0, #32
 1038              	.LVL167:
 1039 002a FFF7FEFF 		bl	MMA8652_Write
 1040              	.LVL168:
 390:MMA8652.c     ****     if (error) {
 1041              		.loc 1 390 0
 1042 002e 0028     		cmp	r0, #0
 1043 0030 01D1     		bne	.L85
 391:MMA8652.c     ****         return error;
 392:MMA8652.c     ****     }
 393:MMA8652.c     ****     
 394:MMA8652.c     ****     // Enter active mode
 395:MMA8652.c     ****     error = MMA8652_ActiveMode();
 1044              		.loc 1 395 0
 1045 0032 FFF7FEFF 		bl	MMA8652_ActiveMode
 1046              	.LVL169:
 1047              	.L85:
 396:MMA8652.c     ****     return error;
 397:MMA8652.c     **** }
 1048              		.loc 1 397 0
 1049              		@ sp needed
 1050 0036 70BD     		pop	{r4, r5, r6, pc}
 1051              		.cfi_endproc
 1052              	.LFE46:
ARM GAS  C:\Users\MARLOK~1\AppData\Local\Temp\ccVNfKl6.s 			page 28


 1053              		.size	MMA8652_TransientSetup, .-MMA8652_TransientSetup
 1054              		.section	.text.MMA8652_WhoAmI,"ax",%progbits
 1055              		.align	1
 1056              		.global	MMA8652_WhoAmI
 1057              		.code	16
 1058              		.thumb_func
 1059              		.type	MMA8652_WhoAmI, %function
 1060              	MMA8652_WhoAmI:
 1061              	.LFB47:
 398:MMA8652.c     **** 
 399:MMA8652.c     **** uint32_t MMA8652_WhoAmI(uint8_t* id)
 400:MMA8652.c     **** {
 1062              		.loc 1 400 0
 1063              		.cfi_startproc
 1064              		@ args = 0, pretend = 0, frame = 0
 1065              		@ frame_needed = 0, uses_anonymous_args = 0
 1066              	.LVL170:
 1067 0000 10B5     		push	{r4, lr}
 1068              		.cfi_def_cfa_offset 8
 1069              		.cfi_offset 4, -8
 1070              		.cfi_offset 14, -4
 1071              		.loc 1 400 0
 1072 0002 0100     		movs	r1, r0
 401:MMA8652.c     ****     return MMA8652_Read(MMA8652_WHO_AM_I, id);
 1073              		.loc 1 401 0
 1074 0004 0D20     		movs	r0, #13
 1075              	.LVL171:
 1076 0006 FFF7FEFF 		bl	MMA8652_Read
 1077              	.LVL172:
 402:MMA8652.c     **** }
 1078              		.loc 1 402 0
 1079              		@ sp needed
 1080 000a 10BD     		pop	{r4, pc}
 1081              		.cfi_endproc
 1082              	.LFE47:
 1083              		.size	MMA8652_WhoAmI, .-MMA8652_WhoAmI
 1084              		.text
 1085              	.Letext0:
 1086              		.file 2 "c:\\program files (x86)\\cypress\\psoc creator\\4.2\\psoc creator\\import\\gnu\\arm\\5.4.
 1087              		.file 3 "c:\\program files (x86)\\cypress\\psoc creator\\4.2\\psoc creator\\import\\gnu\\arm\\5.4.
 1088              		.file 4 "c:\\program files (x86)\\cypress\\psoc creator\\4.2\\psoc creator\\import\\gnu\\arm\\5.4.
 1089              		.file 5 "Generated_Source\\PSoC4/I2C_I2C.h"
 1090              		.file 6 "Generated_Source\\PSoC4/CyLib.h"