ARM GAS  C:\Users\MARLOK~1\AppData\Local\Temp\cc3IUKCT.s 			page 1


   1              		.syntax unified
   2              		.cpu cortex-m0
   3              		.fpu softvfp
   4              		.eabi_attribute 20, 1
   5              		.eabi_attribute 21, 1
   6              		.eabi_attribute 23, 3
   7              		.eabi_attribute 24, 1
   8              		.eabi_attribute 25, 1
   9              		.eabi_attribute 26, 1
  10              		.eabi_attribute 30, 4
  11              		.eabi_attribute 34, 0
  12              		.eabi_attribute 18, 4
  13              		.thumb
  14              		.syntax unified
  15              		.file	"UART_UART.c"
  16              		.text
  17              	.Ltext0:
  18              		.cfi_sections	.debug_frame
  19              		.section	.text.UART_UART_WAKEUP_ISR,"ax",%progbits
  20              		.align	1
  21              		.global	UART_UART_WAKEUP_ISR
  22              		.code	16
  23              		.thumb_func
  24              		.type	UART_UART_WAKEUP_ISR, %function
  25              	UART_UART_WAKEUP_ISR:
  26              	.LFB18:
  27              		.file 1 "Generated_Source\\PSoC4\\UART_UART.c"
   1:Generated_Source\PSoC4/UART_UART.c **** /***************************************************************************//**
   2:Generated_Source\PSoC4/UART_UART.c **** * \file UART_UART.c
   3:Generated_Source\PSoC4/UART_UART.c **** * \version 4.0
   4:Generated_Source\PSoC4/UART_UART.c **** *
   5:Generated_Source\PSoC4/UART_UART.c **** * \brief
   6:Generated_Source\PSoC4/UART_UART.c **** *  This file provides the source code to the API for the SCB Component in
   7:Generated_Source\PSoC4/UART_UART.c **** *  UART mode.
   8:Generated_Source\PSoC4/UART_UART.c **** *
   9:Generated_Source\PSoC4/UART_UART.c **** * Note:
  10:Generated_Source\PSoC4/UART_UART.c **** *
  11:Generated_Source\PSoC4/UART_UART.c **** *******************************************************************************
  12:Generated_Source\PSoC4/UART_UART.c **** * \copyright
  13:Generated_Source\PSoC4/UART_UART.c **** * Copyright 2013-2017, Cypress Semiconductor Corporation.  All rights reserved.
  14:Generated_Source\PSoC4/UART_UART.c **** * You may use this file only in accordance with the license, terms, conditions,
  15:Generated_Source\PSoC4/UART_UART.c **** * disclaimers, and limitations in the end user license agreement accompanying
  16:Generated_Source\PSoC4/UART_UART.c **** * the software package with which this file was provided.
  17:Generated_Source\PSoC4/UART_UART.c **** *******************************************************************************/
  18:Generated_Source\PSoC4/UART_UART.c **** 
  19:Generated_Source\PSoC4/UART_UART.c **** #include "UART_PVT.h"
  20:Generated_Source\PSoC4/UART_UART.c **** #include "UART_SPI_UART_PVT.h"
  21:Generated_Source\PSoC4/UART_UART.c **** 
  22:Generated_Source\PSoC4/UART_UART.c **** 
  23:Generated_Source\PSoC4/UART_UART.c **** #if (UART_UART_WAKE_ENABLE_CONST && UART_UART_RX_WAKEUP_IRQ)
  24:Generated_Source\PSoC4/UART_UART.c ****     /**
  25:Generated_Source\PSoC4/UART_UART.c ****     * \addtogroup group_globals
  26:Generated_Source\PSoC4/UART_UART.c ****     * \{
  27:Generated_Source\PSoC4/UART_UART.c ****     */
  28:Generated_Source\PSoC4/UART_UART.c ****     /** This global variable determines whether to enable Skip Start
  29:Generated_Source\PSoC4/UART_UART.c ****     * functionality when UART_Sleep() function is called:
  30:Generated_Source\PSoC4/UART_UART.c ****     * 0 – disable, other values – enable. Default value is 1.
ARM GAS  C:\Users\MARLOK~1\AppData\Local\Temp\cc3IUKCT.s 			page 2


  31:Generated_Source\PSoC4/UART_UART.c ****     * It is only available when Enable wakeup from Deep Sleep Mode is enabled.
  32:Generated_Source\PSoC4/UART_UART.c ****     */
  33:Generated_Source\PSoC4/UART_UART.c ****     uint8 UART_skipStart = 1u;
  34:Generated_Source\PSoC4/UART_UART.c ****     /** \} globals */
  35:Generated_Source\PSoC4/UART_UART.c **** #endif /* (UART_UART_WAKE_ENABLE_CONST && UART_UART_RX_WAKEUP_IRQ) */
  36:Generated_Source\PSoC4/UART_UART.c **** 
  37:Generated_Source\PSoC4/UART_UART.c **** #if(UART_SCB_MODE_UNCONFIG_CONST_CFG)
  38:Generated_Source\PSoC4/UART_UART.c **** 
  39:Generated_Source\PSoC4/UART_UART.c ****     /***************************************
  40:Generated_Source\PSoC4/UART_UART.c ****     *  Configuration Structure Initialization
  41:Generated_Source\PSoC4/UART_UART.c ****     ***************************************/
  42:Generated_Source\PSoC4/UART_UART.c **** 
  43:Generated_Source\PSoC4/UART_UART.c ****     const UART_UART_INIT_STRUCT UART_configUart =
  44:Generated_Source\PSoC4/UART_UART.c ****     {
  45:Generated_Source\PSoC4/UART_UART.c ****         UART_UART_SUB_MODE,
  46:Generated_Source\PSoC4/UART_UART.c ****         UART_UART_DIRECTION,
  47:Generated_Source\PSoC4/UART_UART.c ****         UART_UART_DATA_BITS_NUM,
  48:Generated_Source\PSoC4/UART_UART.c ****         UART_UART_PARITY_TYPE,
  49:Generated_Source\PSoC4/UART_UART.c ****         UART_UART_STOP_BITS_NUM,
  50:Generated_Source\PSoC4/UART_UART.c ****         UART_UART_OVS_FACTOR,
  51:Generated_Source\PSoC4/UART_UART.c ****         UART_UART_IRDA_LOW_POWER,
  52:Generated_Source\PSoC4/UART_UART.c ****         UART_UART_MEDIAN_FILTER_ENABLE,
  53:Generated_Source\PSoC4/UART_UART.c ****         UART_UART_RETRY_ON_NACK,
  54:Generated_Source\PSoC4/UART_UART.c ****         UART_UART_IRDA_POLARITY,
  55:Generated_Source\PSoC4/UART_UART.c ****         UART_UART_DROP_ON_PARITY_ERR,
  56:Generated_Source\PSoC4/UART_UART.c ****         UART_UART_DROP_ON_FRAME_ERR,
  57:Generated_Source\PSoC4/UART_UART.c ****         UART_UART_WAKE_ENABLE,
  58:Generated_Source\PSoC4/UART_UART.c ****         0u,
  59:Generated_Source\PSoC4/UART_UART.c ****         NULL,
  60:Generated_Source\PSoC4/UART_UART.c ****         0u,
  61:Generated_Source\PSoC4/UART_UART.c ****         NULL,
  62:Generated_Source\PSoC4/UART_UART.c ****         UART_UART_MP_MODE_ENABLE,
  63:Generated_Source\PSoC4/UART_UART.c ****         UART_UART_MP_ACCEPT_ADDRESS,
  64:Generated_Source\PSoC4/UART_UART.c ****         UART_UART_MP_RX_ADDRESS,
  65:Generated_Source\PSoC4/UART_UART.c ****         UART_UART_MP_RX_ADDRESS_MASK,
  66:Generated_Source\PSoC4/UART_UART.c ****         (uint32) UART_SCB_IRQ_INTERNAL,
  67:Generated_Source\PSoC4/UART_UART.c ****         UART_UART_INTR_RX_MASK,
  68:Generated_Source\PSoC4/UART_UART.c ****         UART_UART_RX_TRIGGER_LEVEL,
  69:Generated_Source\PSoC4/UART_UART.c ****         UART_UART_INTR_TX_MASK,
  70:Generated_Source\PSoC4/UART_UART.c ****         UART_UART_TX_TRIGGER_LEVEL,
  71:Generated_Source\PSoC4/UART_UART.c ****         (uint8) UART_UART_BYTE_MODE_ENABLE,
  72:Generated_Source\PSoC4/UART_UART.c ****         (uint8) UART_UART_CTS_ENABLE,
  73:Generated_Source\PSoC4/UART_UART.c ****         (uint8) UART_UART_CTS_POLARITY,
  74:Generated_Source\PSoC4/UART_UART.c ****         (uint8) UART_UART_RTS_POLARITY,
  75:Generated_Source\PSoC4/UART_UART.c ****         (uint8) UART_UART_RTS_FIFO_LEVEL,
  76:Generated_Source\PSoC4/UART_UART.c ****         (uint8) UART_UART_RX_BREAK_WIDTH
  77:Generated_Source\PSoC4/UART_UART.c ****     };
  78:Generated_Source\PSoC4/UART_UART.c **** 
  79:Generated_Source\PSoC4/UART_UART.c **** 
  80:Generated_Source\PSoC4/UART_UART.c ****     /*******************************************************************************
  81:Generated_Source\PSoC4/UART_UART.c ****     * Function Name: UART_UartInit
  82:Generated_Source\PSoC4/UART_UART.c ****     ****************************************************************************//**
  83:Generated_Source\PSoC4/UART_UART.c ****     *
  84:Generated_Source\PSoC4/UART_UART.c ****     *  Configures the UART for UART operation.
  85:Generated_Source\PSoC4/UART_UART.c ****     *
  86:Generated_Source\PSoC4/UART_UART.c ****     *  This function is intended specifically to be used when the UART
  87:Generated_Source\PSoC4/UART_UART.c ****     *  configuration is set to “Unconfigured UART” in the customizer.
ARM GAS  C:\Users\MARLOK~1\AppData\Local\Temp\cc3IUKCT.s 			page 3


  88:Generated_Source\PSoC4/UART_UART.c ****     *  After initializing the UART in UART mode using this function,
  89:Generated_Source\PSoC4/UART_UART.c ****     *  the component can be enabled using the UART_Start() or
  90:Generated_Source\PSoC4/UART_UART.c ****     * UART_Enable() function.
  91:Generated_Source\PSoC4/UART_UART.c ****     *  This function uses a pointer to a structure that provides the configuration
  92:Generated_Source\PSoC4/UART_UART.c ****     *  settings. This structure contains the same information that would otherwise
  93:Generated_Source\PSoC4/UART_UART.c ****     *  be provided by the customizer settings.
  94:Generated_Source\PSoC4/UART_UART.c ****     *
  95:Generated_Source\PSoC4/UART_UART.c ****     *  \param config: pointer to a structure that contains the following list of
  96:Generated_Source\PSoC4/UART_UART.c ****     *   fields. These fields match the selections available in the customizer.
  97:Generated_Source\PSoC4/UART_UART.c ****     *   Refer to the customizer for further description of the settings.
  98:Generated_Source\PSoC4/UART_UART.c ****     *
  99:Generated_Source\PSoC4/UART_UART.c ****     *******************************************************************************/
 100:Generated_Source\PSoC4/UART_UART.c ****     void UART_UartInit(const UART_UART_INIT_STRUCT *config)
 101:Generated_Source\PSoC4/UART_UART.c ****     {
 102:Generated_Source\PSoC4/UART_UART.c ****         uint32 pinsConfig;
 103:Generated_Source\PSoC4/UART_UART.c **** 
 104:Generated_Source\PSoC4/UART_UART.c ****         if (NULL == config)
 105:Generated_Source\PSoC4/UART_UART.c ****         {
 106:Generated_Source\PSoC4/UART_UART.c ****             CYASSERT(0u != 0u); /* Halt execution due to bad function parameter */
 107:Generated_Source\PSoC4/UART_UART.c ****         }
 108:Generated_Source\PSoC4/UART_UART.c ****         else
 109:Generated_Source\PSoC4/UART_UART.c ****         {
 110:Generated_Source\PSoC4/UART_UART.c ****             /* Get direction to configure UART pins: TX, RX or TX+RX */
 111:Generated_Source\PSoC4/UART_UART.c ****             pinsConfig  = config->direction;
 112:Generated_Source\PSoC4/UART_UART.c **** 
 113:Generated_Source\PSoC4/UART_UART.c ****         #if !(UART_CY_SCBIP_V0 || UART_CY_SCBIP_V1)
 114:Generated_Source\PSoC4/UART_UART.c ****             /* Add RTS and CTS pins to configure */
 115:Generated_Source\PSoC4/UART_UART.c ****             pinsConfig |= (0u != config->rtsRxFifoLevel) ? (UART_UART_RTS_PIN_ENABLE) : (0u);
 116:Generated_Source\PSoC4/UART_UART.c ****             pinsConfig |= (0u != config->enableCts)      ? (UART_UART_CTS_PIN_ENABLE) : (0u);
 117:Generated_Source\PSoC4/UART_UART.c ****         #endif /* !(UART_CY_SCBIP_V0 || UART_CY_SCBIP_V1) */
 118:Generated_Source\PSoC4/UART_UART.c **** 
 119:Generated_Source\PSoC4/UART_UART.c ****             /* Configure pins */
 120:Generated_Source\PSoC4/UART_UART.c ****             UART_SetPins(UART_SCB_MODE_UART, config->mode, pinsConfig);
 121:Generated_Source\PSoC4/UART_UART.c **** 
 122:Generated_Source\PSoC4/UART_UART.c ****             /* Store internal configuration */
 123:Generated_Source\PSoC4/UART_UART.c ****             UART_scbMode       = (uint8) UART_SCB_MODE_UART;
 124:Generated_Source\PSoC4/UART_UART.c ****             UART_scbEnableWake = (uint8) config->enableWake;
 125:Generated_Source\PSoC4/UART_UART.c ****             UART_scbEnableIntr = (uint8) config->enableInterrupt;
 126:Generated_Source\PSoC4/UART_UART.c **** 
 127:Generated_Source\PSoC4/UART_UART.c ****             /* Set RX direction internal variables */
 128:Generated_Source\PSoC4/UART_UART.c ****             UART_rxBuffer      =         config->rxBuffer;
 129:Generated_Source\PSoC4/UART_UART.c ****             UART_rxDataBits    = (uint8) config->dataBits;
 130:Generated_Source\PSoC4/UART_UART.c ****             UART_rxBufferSize  =         config->rxBufferSize;
 131:Generated_Source\PSoC4/UART_UART.c **** 
 132:Generated_Source\PSoC4/UART_UART.c ****             /* Set TX direction internal variables */
 133:Generated_Source\PSoC4/UART_UART.c ****             UART_txBuffer      =         config->txBuffer;
 134:Generated_Source\PSoC4/UART_UART.c ****             UART_txDataBits    = (uint8) config->dataBits;
 135:Generated_Source\PSoC4/UART_UART.c ****             UART_txBufferSize  =         config->txBufferSize;
 136:Generated_Source\PSoC4/UART_UART.c **** 
 137:Generated_Source\PSoC4/UART_UART.c ****             /* Configure UART interface */
 138:Generated_Source\PSoC4/UART_UART.c ****             if(UART_UART_MODE_IRDA == config->mode)
 139:Generated_Source\PSoC4/UART_UART.c ****             {
 140:Generated_Source\PSoC4/UART_UART.c ****                 /* OVS settings: IrDA */
 141:Generated_Source\PSoC4/UART_UART.c ****                 UART_CTRL_REG  = ((0u != config->enableIrdaLowPower) ?
 142:Generated_Source\PSoC4/UART_UART.c ****                                                 (UART_UART_GET_CTRL_OVS_IRDA_LP(config->oversample)
 143:Generated_Source\PSoC4/UART_UART.c ****                                                 (UART_CTRL_OVS_IRDA_OVS16));
 144:Generated_Source\PSoC4/UART_UART.c ****             }
ARM GAS  C:\Users\MARLOK~1\AppData\Local\Temp\cc3IUKCT.s 			page 4


 145:Generated_Source\PSoC4/UART_UART.c ****             else
 146:Generated_Source\PSoC4/UART_UART.c ****             {
 147:Generated_Source\PSoC4/UART_UART.c ****                 /* OVS settings: UART and SmartCard */
 148:Generated_Source\PSoC4/UART_UART.c ****                 UART_CTRL_REG  = UART_GET_CTRL_OVS(config->oversample);
 149:Generated_Source\PSoC4/UART_UART.c ****             }
 150:Generated_Source\PSoC4/UART_UART.c **** 
 151:Generated_Source\PSoC4/UART_UART.c ****             UART_CTRL_REG     |= UART_GET_CTRL_BYTE_MODE  (config->enableByteMode)      |
 152:Generated_Source\PSoC4/UART_UART.c ****                                              UART_GET_CTRL_ADDR_ACCEPT(config->multiprocAcceptAddr)
 153:Generated_Source\PSoC4/UART_UART.c ****                                              UART_CTRL_UART;
 154:Generated_Source\PSoC4/UART_UART.c **** 
 155:Generated_Source\PSoC4/UART_UART.c ****             /* Configure sub-mode: UART, SmartCard or IrDA */
 156:Generated_Source\PSoC4/UART_UART.c ****             UART_UART_CTRL_REG = UART_GET_UART_CTRL_MODE(config->mode);
 157:Generated_Source\PSoC4/UART_UART.c **** 
 158:Generated_Source\PSoC4/UART_UART.c ****             /* Configure RX direction */
 159:Generated_Source\PSoC4/UART_UART.c ****             UART_UART_RX_CTRL_REG = UART_GET_UART_RX_CTRL_MODE(config->stopBits)              |
 160:Generated_Source\PSoC4/UART_UART.c ****                                         UART_GET_UART_RX_CTRL_POLARITY(config->enableInvertedRx)   
 161:Generated_Source\PSoC4/UART_UART.c ****                                         UART_GET_UART_RX_CTRL_MP_MODE(config->enableMultiproc)     
 162:Generated_Source\PSoC4/UART_UART.c ****                                         UART_GET_UART_RX_CTRL_DROP_ON_PARITY_ERR(config->dropOnPari
 163:Generated_Source\PSoC4/UART_UART.c ****                                         UART_GET_UART_RX_CTRL_DROP_ON_FRAME_ERR(config->dropOnFrame
 164:Generated_Source\PSoC4/UART_UART.c ****                                         UART_GET_UART_RX_CTRL_BREAK_WIDTH(config->breakWidth);
 165:Generated_Source\PSoC4/UART_UART.c **** 
 166:Generated_Source\PSoC4/UART_UART.c ****             if(UART_UART_PARITY_NONE != config->parity)
 167:Generated_Source\PSoC4/UART_UART.c ****             {
 168:Generated_Source\PSoC4/UART_UART.c ****                UART_UART_RX_CTRL_REG |= UART_GET_UART_RX_CTRL_PARITY(config->parity) |
 169:Generated_Source\PSoC4/UART_UART.c ****                                                     UART_UART_RX_CTRL_PARITY_ENABLED;
 170:Generated_Source\PSoC4/UART_UART.c ****             }
 171:Generated_Source\PSoC4/UART_UART.c **** 
 172:Generated_Source\PSoC4/UART_UART.c ****             UART_RX_CTRL_REG      = UART_GET_RX_CTRL_DATA_WIDTH(config->dataBits)       |
 173:Generated_Source\PSoC4/UART_UART.c ****                                                 UART_GET_RX_CTRL_MEDIAN(config->enableMedianFilter)
 174:Generated_Source\PSoC4/UART_UART.c ****                                                 UART_GET_UART_RX_CTRL_ENABLED(config->direction);
 175:Generated_Source\PSoC4/UART_UART.c **** 
 176:Generated_Source\PSoC4/UART_UART.c ****             UART_RX_FIFO_CTRL_REG = UART_GET_RX_FIFO_CTRL_TRIGGER_LEVEL(config->rxTriggerLevel);
 177:Generated_Source\PSoC4/UART_UART.c **** 
 178:Generated_Source\PSoC4/UART_UART.c ****             /* Configure MP address */
 179:Generated_Source\PSoC4/UART_UART.c ****             UART_RX_MATCH_REG     = UART_GET_RX_MATCH_ADDR(config->multiprocAddr) |
 180:Generated_Source\PSoC4/UART_UART.c ****                                                 UART_GET_RX_MATCH_MASK(config->multiprocAddrMask);
 181:Generated_Source\PSoC4/UART_UART.c **** 
 182:Generated_Source\PSoC4/UART_UART.c ****             /* Configure RX direction */
 183:Generated_Source\PSoC4/UART_UART.c ****             UART_UART_TX_CTRL_REG = UART_GET_UART_TX_CTRL_MODE(config->stopBits) |
 184:Generated_Source\PSoC4/UART_UART.c ****                                                 UART_GET_UART_TX_CTRL_RETRY_NACK(config->enableRetr
 185:Generated_Source\PSoC4/UART_UART.c **** 
 186:Generated_Source\PSoC4/UART_UART.c ****             if(UART_UART_PARITY_NONE != config->parity)
 187:Generated_Source\PSoC4/UART_UART.c ****             {
 188:Generated_Source\PSoC4/UART_UART.c ****                UART_UART_TX_CTRL_REG |= UART_GET_UART_TX_CTRL_PARITY(config->parity) |
 189:Generated_Source\PSoC4/UART_UART.c ****                                                     UART_UART_TX_CTRL_PARITY_ENABLED;
 190:Generated_Source\PSoC4/UART_UART.c ****             }
 191:Generated_Source\PSoC4/UART_UART.c **** 
 192:Generated_Source\PSoC4/UART_UART.c ****             UART_TX_CTRL_REG      = UART_GET_TX_CTRL_DATA_WIDTH(config->dataBits)    |
 193:Generated_Source\PSoC4/UART_UART.c ****                                                 UART_GET_UART_TX_CTRL_ENABLED(config->direction);
 194:Generated_Source\PSoC4/UART_UART.c **** 
 195:Generated_Source\PSoC4/UART_UART.c ****             UART_TX_FIFO_CTRL_REG = UART_GET_TX_FIFO_CTRL_TRIGGER_LEVEL(config->txTriggerLevel);
 196:Generated_Source\PSoC4/UART_UART.c **** 
 197:Generated_Source\PSoC4/UART_UART.c ****         #if !(UART_CY_SCBIP_V0 || UART_CY_SCBIP_V1)
 198:Generated_Source\PSoC4/UART_UART.c ****             UART_UART_FLOW_CTRL_REG = UART_GET_UART_FLOW_CTRL_CTS_ENABLE(config->enableCts) | \
 199:Generated_Source\PSoC4/UART_UART.c ****                                             UART_GET_UART_FLOW_CTRL_CTS_POLARITY (config->ctsPolari
 200:Generated_Source\PSoC4/UART_UART.c ****                                             UART_GET_UART_FLOW_CTRL_RTS_POLARITY (config->rtsPolari
 201:Generated_Source\PSoC4/UART_UART.c ****                                             UART_GET_UART_FLOW_CTRL_TRIGGER_LEVEL(config->rtsRxFifo
ARM GAS  C:\Users\MARLOK~1\AppData\Local\Temp\cc3IUKCT.s 			page 5


 202:Generated_Source\PSoC4/UART_UART.c ****         #endif /* !(UART_CY_SCBIP_V0 || UART_CY_SCBIP_V1) */
 203:Generated_Source\PSoC4/UART_UART.c **** 
 204:Generated_Source\PSoC4/UART_UART.c ****             /* Configure interrupt with UART handler but do not enable it */
 205:Generated_Source\PSoC4/UART_UART.c ****             CyIntDisable    (UART_ISR_NUMBER);
 206:Generated_Source\PSoC4/UART_UART.c ****             CyIntSetPriority(UART_ISR_NUMBER, UART_ISR_PRIORITY);
 207:Generated_Source\PSoC4/UART_UART.c ****             (void) CyIntSetVector(UART_ISR_NUMBER, &UART_SPI_UART_ISR);
 208:Generated_Source\PSoC4/UART_UART.c **** 
 209:Generated_Source\PSoC4/UART_UART.c ****             /* Configure WAKE interrupt */
 210:Generated_Source\PSoC4/UART_UART.c ****         #if(UART_UART_RX_WAKEUP_IRQ)
 211:Generated_Source\PSoC4/UART_UART.c ****             CyIntDisable    (UART_RX_WAKE_ISR_NUMBER);
 212:Generated_Source\PSoC4/UART_UART.c ****             CyIntSetPriority(UART_RX_WAKE_ISR_NUMBER, UART_RX_WAKE_ISR_PRIORITY);
 213:Generated_Source\PSoC4/UART_UART.c ****             (void) CyIntSetVector(UART_RX_WAKE_ISR_NUMBER, &UART_UART_WAKEUP_ISR);
 214:Generated_Source\PSoC4/UART_UART.c ****         #endif /* (UART_UART_RX_WAKEUP_IRQ) */
 215:Generated_Source\PSoC4/UART_UART.c **** 
 216:Generated_Source\PSoC4/UART_UART.c ****             /* Configure interrupt sources */
 217:Generated_Source\PSoC4/UART_UART.c ****             UART_INTR_I2C_EC_MASK_REG = UART_NO_INTR_SOURCES;
 218:Generated_Source\PSoC4/UART_UART.c ****             UART_INTR_SPI_EC_MASK_REG = UART_NO_INTR_SOURCES;
 219:Generated_Source\PSoC4/UART_UART.c ****             UART_INTR_SLAVE_MASK_REG  = UART_NO_INTR_SOURCES;
 220:Generated_Source\PSoC4/UART_UART.c ****             UART_INTR_MASTER_MASK_REG = UART_NO_INTR_SOURCES;
 221:Generated_Source\PSoC4/UART_UART.c ****             UART_INTR_RX_MASK_REG     = config->rxInterruptMask;
 222:Generated_Source\PSoC4/UART_UART.c ****             UART_INTR_TX_MASK_REG     = config->txInterruptMask;
 223:Generated_Source\PSoC4/UART_UART.c **** 
 224:Generated_Source\PSoC4/UART_UART.c ****             /* Configure TX interrupt sources to restore. */
 225:Generated_Source\PSoC4/UART_UART.c ****             UART_IntrTxMask = LO16(UART_INTR_TX_MASK_REG);
 226:Generated_Source\PSoC4/UART_UART.c **** 
 227:Generated_Source\PSoC4/UART_UART.c ****             /* Clear RX buffer indexes */
 228:Generated_Source\PSoC4/UART_UART.c ****             UART_rxBufferHead     = 0u;
 229:Generated_Source\PSoC4/UART_UART.c ****             UART_rxBufferTail     = 0u;
 230:Generated_Source\PSoC4/UART_UART.c ****             UART_rxBufferOverflow = 0u;
 231:Generated_Source\PSoC4/UART_UART.c **** 
 232:Generated_Source\PSoC4/UART_UART.c ****             /* Clear TX buffer indexes */
 233:Generated_Source\PSoC4/UART_UART.c ****             UART_txBufferHead = 0u;
 234:Generated_Source\PSoC4/UART_UART.c ****             UART_txBufferTail = 0u;
 235:Generated_Source\PSoC4/UART_UART.c ****         }
 236:Generated_Source\PSoC4/UART_UART.c ****     }
 237:Generated_Source\PSoC4/UART_UART.c **** 
 238:Generated_Source\PSoC4/UART_UART.c **** #else
 239:Generated_Source\PSoC4/UART_UART.c **** 
 240:Generated_Source\PSoC4/UART_UART.c ****     /*******************************************************************************
 241:Generated_Source\PSoC4/UART_UART.c ****     * Function Name: UART_UartInit
 242:Generated_Source\PSoC4/UART_UART.c ****     ****************************************************************************//**
 243:Generated_Source\PSoC4/UART_UART.c ****     *
 244:Generated_Source\PSoC4/UART_UART.c ****     *  Configures the SCB for the UART operation.
 245:Generated_Source\PSoC4/UART_UART.c ****     *
 246:Generated_Source\PSoC4/UART_UART.c ****     *******************************************************************************/
 247:Generated_Source\PSoC4/UART_UART.c ****     void UART_UartInit(void)
 248:Generated_Source\PSoC4/UART_UART.c ****     {
 249:Generated_Source\PSoC4/UART_UART.c ****         /* Configure UART interface */
 250:Generated_Source\PSoC4/UART_UART.c ****         UART_CTRL_REG = UART_UART_DEFAULT_CTRL;
 251:Generated_Source\PSoC4/UART_UART.c **** 
 252:Generated_Source\PSoC4/UART_UART.c ****         /* Configure sub-mode: UART, SmartCard or IrDA */
 253:Generated_Source\PSoC4/UART_UART.c ****         UART_UART_CTRL_REG = UART_UART_DEFAULT_UART_CTRL;
 254:Generated_Source\PSoC4/UART_UART.c **** 
 255:Generated_Source\PSoC4/UART_UART.c ****         /* Configure RX direction */
 256:Generated_Source\PSoC4/UART_UART.c ****         UART_UART_RX_CTRL_REG = UART_UART_DEFAULT_UART_RX_CTRL;
 257:Generated_Source\PSoC4/UART_UART.c ****         UART_RX_CTRL_REG      = UART_UART_DEFAULT_RX_CTRL;
 258:Generated_Source\PSoC4/UART_UART.c ****         UART_RX_FIFO_CTRL_REG = UART_UART_DEFAULT_RX_FIFO_CTRL;
ARM GAS  C:\Users\MARLOK~1\AppData\Local\Temp\cc3IUKCT.s 			page 6


 259:Generated_Source\PSoC4/UART_UART.c ****         UART_RX_MATCH_REG     = UART_UART_DEFAULT_RX_MATCH_REG;
 260:Generated_Source\PSoC4/UART_UART.c **** 
 261:Generated_Source\PSoC4/UART_UART.c ****         /* Configure TX direction */
 262:Generated_Source\PSoC4/UART_UART.c ****         UART_UART_TX_CTRL_REG = UART_UART_DEFAULT_UART_TX_CTRL;
 263:Generated_Source\PSoC4/UART_UART.c ****         UART_TX_CTRL_REG      = UART_UART_DEFAULT_TX_CTRL;
 264:Generated_Source\PSoC4/UART_UART.c ****         UART_TX_FIFO_CTRL_REG = UART_UART_DEFAULT_TX_FIFO_CTRL;
 265:Generated_Source\PSoC4/UART_UART.c **** 
 266:Generated_Source\PSoC4/UART_UART.c ****     #if !(UART_CY_SCBIP_V0 || UART_CY_SCBIP_V1)
 267:Generated_Source\PSoC4/UART_UART.c ****         UART_UART_FLOW_CTRL_REG = UART_UART_DEFAULT_FLOW_CTRL;
 268:Generated_Source\PSoC4/UART_UART.c ****     #endif /* !(UART_CY_SCBIP_V0 || UART_CY_SCBIP_V1) */
 269:Generated_Source\PSoC4/UART_UART.c **** 
 270:Generated_Source\PSoC4/UART_UART.c ****         /* Configure interrupt with UART handler but do not enable it */
 271:Generated_Source\PSoC4/UART_UART.c ****     #if(UART_SCB_IRQ_INTERNAL)
 272:Generated_Source\PSoC4/UART_UART.c ****         CyIntDisable    (UART_ISR_NUMBER);
 273:Generated_Source\PSoC4/UART_UART.c ****         CyIntSetPriority(UART_ISR_NUMBER, UART_ISR_PRIORITY);
 274:Generated_Source\PSoC4/UART_UART.c ****         (void) CyIntSetVector(UART_ISR_NUMBER, &UART_SPI_UART_ISR);
 275:Generated_Source\PSoC4/UART_UART.c ****     #endif /* (UART_SCB_IRQ_INTERNAL) */
 276:Generated_Source\PSoC4/UART_UART.c **** 
 277:Generated_Source\PSoC4/UART_UART.c ****         /* Configure WAKE interrupt */
 278:Generated_Source\PSoC4/UART_UART.c ****     #if(UART_UART_RX_WAKEUP_IRQ)
 279:Generated_Source\PSoC4/UART_UART.c ****         CyIntDisable    (UART_RX_WAKE_ISR_NUMBER);
 280:Generated_Source\PSoC4/UART_UART.c ****         CyIntSetPriority(UART_RX_WAKE_ISR_NUMBER, UART_RX_WAKE_ISR_PRIORITY);
 281:Generated_Source\PSoC4/UART_UART.c ****         (void) CyIntSetVector(UART_RX_WAKE_ISR_NUMBER, &UART_UART_WAKEUP_ISR);
 282:Generated_Source\PSoC4/UART_UART.c ****     #endif /* (UART_UART_RX_WAKEUP_IRQ) */
 283:Generated_Source\PSoC4/UART_UART.c **** 
 284:Generated_Source\PSoC4/UART_UART.c ****         /* Configure interrupt sources */
 285:Generated_Source\PSoC4/UART_UART.c ****         UART_INTR_I2C_EC_MASK_REG = UART_UART_DEFAULT_INTR_I2C_EC_MASK;
 286:Generated_Source\PSoC4/UART_UART.c ****         UART_INTR_SPI_EC_MASK_REG = UART_UART_DEFAULT_INTR_SPI_EC_MASK;
 287:Generated_Source\PSoC4/UART_UART.c ****         UART_INTR_SLAVE_MASK_REG  = UART_UART_DEFAULT_INTR_SLAVE_MASK;
 288:Generated_Source\PSoC4/UART_UART.c ****         UART_INTR_MASTER_MASK_REG = UART_UART_DEFAULT_INTR_MASTER_MASK;
 289:Generated_Source\PSoC4/UART_UART.c ****         UART_INTR_RX_MASK_REG     = UART_UART_DEFAULT_INTR_RX_MASK;
 290:Generated_Source\PSoC4/UART_UART.c ****         UART_INTR_TX_MASK_REG     = UART_UART_DEFAULT_INTR_TX_MASK;
 291:Generated_Source\PSoC4/UART_UART.c **** 
 292:Generated_Source\PSoC4/UART_UART.c ****         /* Configure TX interrupt sources to restore. */
 293:Generated_Source\PSoC4/UART_UART.c ****         UART_IntrTxMask = LO16(UART_INTR_TX_MASK_REG);
 294:Generated_Source\PSoC4/UART_UART.c **** 
 295:Generated_Source\PSoC4/UART_UART.c ****     #if(UART_INTERNAL_RX_SW_BUFFER_CONST)
 296:Generated_Source\PSoC4/UART_UART.c ****         UART_rxBufferHead     = 0u;
 297:Generated_Source\PSoC4/UART_UART.c ****         UART_rxBufferTail     = 0u;
 298:Generated_Source\PSoC4/UART_UART.c ****         UART_rxBufferOverflow = 0u;
 299:Generated_Source\PSoC4/UART_UART.c ****     #endif /* (UART_INTERNAL_RX_SW_BUFFER_CONST) */
 300:Generated_Source\PSoC4/UART_UART.c **** 
 301:Generated_Source\PSoC4/UART_UART.c ****     #if(UART_INTERNAL_TX_SW_BUFFER_CONST)
 302:Generated_Source\PSoC4/UART_UART.c ****         UART_txBufferHead = 0u;
 303:Generated_Source\PSoC4/UART_UART.c ****         UART_txBufferTail = 0u;
 304:Generated_Source\PSoC4/UART_UART.c ****     #endif /* (UART_INTERNAL_TX_SW_BUFFER_CONST) */
 305:Generated_Source\PSoC4/UART_UART.c ****     }
 306:Generated_Source\PSoC4/UART_UART.c **** #endif /* (UART_SCB_MODE_UNCONFIG_CONST_CFG) */
 307:Generated_Source\PSoC4/UART_UART.c **** 
 308:Generated_Source\PSoC4/UART_UART.c **** 
 309:Generated_Source\PSoC4/UART_UART.c **** /*******************************************************************************
 310:Generated_Source\PSoC4/UART_UART.c **** * Function Name: UART_UartPostEnable
 311:Generated_Source\PSoC4/UART_UART.c **** ****************************************************************************//**
 312:Generated_Source\PSoC4/UART_UART.c **** *
 313:Generated_Source\PSoC4/UART_UART.c **** *  Restores HSIOM settings for the UART output pins (TX and/or RTS) to be
 314:Generated_Source\PSoC4/UART_UART.c **** *  controlled by the SCB UART.
 315:Generated_Source\PSoC4/UART_UART.c **** *
ARM GAS  C:\Users\MARLOK~1\AppData\Local\Temp\cc3IUKCT.s 			page 7


 316:Generated_Source\PSoC4/UART_UART.c **** *******************************************************************************/
 317:Generated_Source\PSoC4/UART_UART.c **** void UART_UartPostEnable(void)
 318:Generated_Source\PSoC4/UART_UART.c **** {
 319:Generated_Source\PSoC4/UART_UART.c **** #if (UART_SCB_MODE_UNCONFIG_CONST_CFG)
 320:Generated_Source\PSoC4/UART_UART.c ****     #if (UART_TX_SDA_MISO_PIN)
 321:Generated_Source\PSoC4/UART_UART.c ****         if (UART_CHECK_TX_SDA_MISO_PIN_USED)
 322:Generated_Source\PSoC4/UART_UART.c ****         {
 323:Generated_Source\PSoC4/UART_UART.c ****             /* Set SCB UART to drive the output pin */
 324:Generated_Source\PSoC4/UART_UART.c ****             UART_SET_HSIOM_SEL(UART_TX_SDA_MISO_HSIOM_REG, UART_TX_SDA_MISO_HSIOM_MASK,
 325:Generated_Source\PSoC4/UART_UART.c ****                                            UART_TX_SDA_MISO_HSIOM_POS, UART_TX_SDA_MISO_HSIOM_SEL_U
 326:Generated_Source\PSoC4/UART_UART.c ****         }
 327:Generated_Source\PSoC4/UART_UART.c ****     #endif /* (UART_TX_SDA_MISO_PIN_PIN) */
 328:Generated_Source\PSoC4/UART_UART.c **** 
 329:Generated_Source\PSoC4/UART_UART.c ****     #if !(UART_CY_SCBIP_V0 || UART_CY_SCBIP_V1)
 330:Generated_Source\PSoC4/UART_UART.c ****         #if (UART_RTS_SS0_PIN)
 331:Generated_Source\PSoC4/UART_UART.c ****             if (UART_CHECK_RTS_SS0_PIN_USED)
 332:Generated_Source\PSoC4/UART_UART.c ****             {
 333:Generated_Source\PSoC4/UART_UART.c ****                 /* Set SCB UART to drive the output pin */
 334:Generated_Source\PSoC4/UART_UART.c ****                 UART_SET_HSIOM_SEL(UART_RTS_SS0_HSIOM_REG, UART_RTS_SS0_HSIOM_MASK,
 335:Generated_Source\PSoC4/UART_UART.c ****                                                UART_RTS_SS0_HSIOM_POS, UART_RTS_SS0_HSIOM_SEL_UART)
 336:Generated_Source\PSoC4/UART_UART.c ****             }
 337:Generated_Source\PSoC4/UART_UART.c ****         #endif /* (UART_RTS_SS0_PIN) */
 338:Generated_Source\PSoC4/UART_UART.c ****     #endif /* !(UART_CY_SCBIP_V0 || UART_CY_SCBIP_V1) */
 339:Generated_Source\PSoC4/UART_UART.c **** 
 340:Generated_Source\PSoC4/UART_UART.c **** #else
 341:Generated_Source\PSoC4/UART_UART.c ****     #if (UART_UART_TX_PIN)
 342:Generated_Source\PSoC4/UART_UART.c ****          /* Set SCB UART to drive the output pin */
 343:Generated_Source\PSoC4/UART_UART.c ****         UART_SET_HSIOM_SEL(UART_TX_HSIOM_REG, UART_TX_HSIOM_MASK,
 344:Generated_Source\PSoC4/UART_UART.c ****                                        UART_TX_HSIOM_POS, UART_TX_HSIOM_SEL_UART);
 345:Generated_Source\PSoC4/UART_UART.c ****     #endif /* (UART_UART_TX_PIN) */
 346:Generated_Source\PSoC4/UART_UART.c **** 
 347:Generated_Source\PSoC4/UART_UART.c ****     #if (UART_UART_RTS_PIN)
 348:Generated_Source\PSoC4/UART_UART.c ****         /* Set SCB UART to drive the output pin */
 349:Generated_Source\PSoC4/UART_UART.c ****         UART_SET_HSIOM_SEL(UART_RTS_HSIOM_REG, UART_RTS_HSIOM_MASK,
 350:Generated_Source\PSoC4/UART_UART.c ****                                        UART_RTS_HSIOM_POS, UART_RTS_HSIOM_SEL_UART);
 351:Generated_Source\PSoC4/UART_UART.c ****     #endif /* (UART_UART_RTS_PIN) */
 352:Generated_Source\PSoC4/UART_UART.c **** #endif /* (UART_SCB_MODE_UNCONFIG_CONST_CFG) */
 353:Generated_Source\PSoC4/UART_UART.c **** 
 354:Generated_Source\PSoC4/UART_UART.c ****     /* Restore TX interrupt sources. */
 355:Generated_Source\PSoC4/UART_UART.c ****     UART_SetTxInterruptMode(UART_IntrTxMask);
 356:Generated_Source\PSoC4/UART_UART.c **** }
 357:Generated_Source\PSoC4/UART_UART.c **** 
 358:Generated_Source\PSoC4/UART_UART.c **** 
 359:Generated_Source\PSoC4/UART_UART.c **** /*******************************************************************************
 360:Generated_Source\PSoC4/UART_UART.c **** * Function Name: UART_UartStop
 361:Generated_Source\PSoC4/UART_UART.c **** ****************************************************************************//**
 362:Generated_Source\PSoC4/UART_UART.c **** *
 363:Generated_Source\PSoC4/UART_UART.c **** *  Changes the HSIOM settings for the UART output pins (TX and/or RTS) to keep
 364:Generated_Source\PSoC4/UART_UART.c **** *  them inactive after the block is disabled. The output pins are controlled by
 365:Generated_Source\PSoC4/UART_UART.c **** *  the GPIO data register. Also, the function disables the skip start feature
 366:Generated_Source\PSoC4/UART_UART.c **** *  to not cause it to trigger after the component is enabled.
 367:Generated_Source\PSoC4/UART_UART.c **** *
 368:Generated_Source\PSoC4/UART_UART.c **** *******************************************************************************/
 369:Generated_Source\PSoC4/UART_UART.c **** void UART_UartStop(void)
 370:Generated_Source\PSoC4/UART_UART.c **** {
 371:Generated_Source\PSoC4/UART_UART.c **** #if(UART_SCB_MODE_UNCONFIG_CONST_CFG)
 372:Generated_Source\PSoC4/UART_UART.c ****     #if (UART_TX_SDA_MISO_PIN)
ARM GAS  C:\Users\MARLOK~1\AppData\Local\Temp\cc3IUKCT.s 			page 8


 373:Generated_Source\PSoC4/UART_UART.c ****         if (UART_CHECK_TX_SDA_MISO_PIN_USED)
 374:Generated_Source\PSoC4/UART_UART.c ****         {
 375:Generated_Source\PSoC4/UART_UART.c ****             /* Set GPIO to drive output pin */
 376:Generated_Source\PSoC4/UART_UART.c ****             UART_SET_HSIOM_SEL(UART_TX_SDA_MISO_HSIOM_REG, UART_TX_SDA_MISO_HSIOM_MASK,
 377:Generated_Source\PSoC4/UART_UART.c ****                                            UART_TX_SDA_MISO_HSIOM_POS, UART_TX_SDA_MISO_HSIOM_SEL_G
 378:Generated_Source\PSoC4/UART_UART.c ****         }
 379:Generated_Source\PSoC4/UART_UART.c ****     #endif /* (UART_TX_SDA_MISO_PIN_PIN) */
 380:Generated_Source\PSoC4/UART_UART.c **** 
 381:Generated_Source\PSoC4/UART_UART.c ****     #if !(UART_CY_SCBIP_V0 || UART_CY_SCBIP_V1)
 382:Generated_Source\PSoC4/UART_UART.c ****         #if (UART_RTS_SS0_PIN)
 383:Generated_Source\PSoC4/UART_UART.c ****             if (UART_CHECK_RTS_SS0_PIN_USED)
 384:Generated_Source\PSoC4/UART_UART.c ****             {
 385:Generated_Source\PSoC4/UART_UART.c ****                 /* Set output pin state after block is disabled */
 386:Generated_Source\PSoC4/UART_UART.c ****                 UART_uart_rts_spi_ss0_Write(UART_GET_UART_RTS_INACTIVE);
 387:Generated_Source\PSoC4/UART_UART.c **** 
 388:Generated_Source\PSoC4/UART_UART.c ****                 /* Set GPIO to drive output pin */
 389:Generated_Source\PSoC4/UART_UART.c ****                 UART_SET_HSIOM_SEL(UART_RTS_SS0_HSIOM_REG, UART_RTS_SS0_HSIOM_MASK,
 390:Generated_Source\PSoC4/UART_UART.c ****                                                UART_RTS_SS0_HSIOM_POS, UART_RTS_SS0_HSIOM_SEL_GPIO)
 391:Generated_Source\PSoC4/UART_UART.c ****             }
 392:Generated_Source\PSoC4/UART_UART.c ****         #endif /* (UART_RTS_SS0_PIN) */
 393:Generated_Source\PSoC4/UART_UART.c ****     #endif /* !(UART_CY_SCBIP_V0 || UART_CY_SCBIP_V1) */
 394:Generated_Source\PSoC4/UART_UART.c **** 
 395:Generated_Source\PSoC4/UART_UART.c **** #else
 396:Generated_Source\PSoC4/UART_UART.c ****     #if (UART_UART_TX_PIN)
 397:Generated_Source\PSoC4/UART_UART.c ****         /* Set GPIO to drive output pin */
 398:Generated_Source\PSoC4/UART_UART.c ****         UART_SET_HSIOM_SEL(UART_TX_HSIOM_REG, UART_TX_HSIOM_MASK,
 399:Generated_Source\PSoC4/UART_UART.c ****                                        UART_TX_HSIOM_POS, UART_TX_HSIOM_SEL_GPIO);
 400:Generated_Source\PSoC4/UART_UART.c ****     #endif /* (UART_UART_TX_PIN) */
 401:Generated_Source\PSoC4/UART_UART.c **** 
 402:Generated_Source\PSoC4/UART_UART.c ****     #if (UART_UART_RTS_PIN)
 403:Generated_Source\PSoC4/UART_UART.c ****         /* Set output pin state after block is disabled */
 404:Generated_Source\PSoC4/UART_UART.c ****         UART_rts_Write(UART_GET_UART_RTS_INACTIVE);
 405:Generated_Source\PSoC4/UART_UART.c **** 
 406:Generated_Source\PSoC4/UART_UART.c ****         /* Set GPIO to drive output pin */
 407:Generated_Source\PSoC4/UART_UART.c ****         UART_SET_HSIOM_SEL(UART_RTS_HSIOM_REG, UART_RTS_HSIOM_MASK,
 408:Generated_Source\PSoC4/UART_UART.c ****                                        UART_RTS_HSIOM_POS, UART_RTS_HSIOM_SEL_GPIO);
 409:Generated_Source\PSoC4/UART_UART.c ****     #endif /* (UART_UART_RTS_PIN) */
 410:Generated_Source\PSoC4/UART_UART.c **** 
 411:Generated_Source\PSoC4/UART_UART.c **** #endif /* (UART_SCB_MODE_UNCONFIG_CONST_CFG) */
 412:Generated_Source\PSoC4/UART_UART.c **** 
 413:Generated_Source\PSoC4/UART_UART.c **** #if (UART_UART_WAKE_ENABLE_CONST)
 414:Generated_Source\PSoC4/UART_UART.c ****     /* Disable skip start feature used for wakeup */
 415:Generated_Source\PSoC4/UART_UART.c ****     UART_UART_RX_CTRL_REG &= (uint32) ~UART_UART_RX_CTRL_SKIP_START;
 416:Generated_Source\PSoC4/UART_UART.c **** #endif /* (UART_UART_WAKE_ENABLE_CONST) */
 417:Generated_Source\PSoC4/UART_UART.c **** 
 418:Generated_Source\PSoC4/UART_UART.c ****     /* Store TX interrupt sources (exclude level triggered). */
 419:Generated_Source\PSoC4/UART_UART.c ****     UART_IntrTxMask = LO16(UART_GetTxInterruptMode() & UART_INTR_UART_TX_RESTORE);
 420:Generated_Source\PSoC4/UART_UART.c **** }
 421:Generated_Source\PSoC4/UART_UART.c **** 
 422:Generated_Source\PSoC4/UART_UART.c **** 
 423:Generated_Source\PSoC4/UART_UART.c **** /*******************************************************************************
 424:Generated_Source\PSoC4/UART_UART.c **** * Function Name: UART_UartSetRxAddress
 425:Generated_Source\PSoC4/UART_UART.c **** ****************************************************************************//**
 426:Generated_Source\PSoC4/UART_UART.c **** *
 427:Generated_Source\PSoC4/UART_UART.c **** *  Sets the hardware detectable receiver address for the UART in the
 428:Generated_Source\PSoC4/UART_UART.c **** *  Multiprocessor mode.
 429:Generated_Source\PSoC4/UART_UART.c **** *
ARM GAS  C:\Users\MARLOK~1\AppData\Local\Temp\cc3IUKCT.s 			page 9


 430:Generated_Source\PSoC4/UART_UART.c **** *  \param address: Address for hardware address detection.
 431:Generated_Source\PSoC4/UART_UART.c **** *
 432:Generated_Source\PSoC4/UART_UART.c **** *******************************************************************************/
 433:Generated_Source\PSoC4/UART_UART.c **** void UART_UartSetRxAddress(uint32 address)
 434:Generated_Source\PSoC4/UART_UART.c **** {
 435:Generated_Source\PSoC4/UART_UART.c ****      uint32 matchReg;
 436:Generated_Source\PSoC4/UART_UART.c **** 
 437:Generated_Source\PSoC4/UART_UART.c ****     matchReg = UART_RX_MATCH_REG;
 438:Generated_Source\PSoC4/UART_UART.c **** 
 439:Generated_Source\PSoC4/UART_UART.c ****     matchReg &= ((uint32) ~UART_RX_MATCH_ADDR_MASK); /* Clear address bits */
 440:Generated_Source\PSoC4/UART_UART.c ****     matchReg |= ((uint32)  (address & UART_RX_MATCH_ADDR_MASK)); /* Set address  */
 441:Generated_Source\PSoC4/UART_UART.c **** 
 442:Generated_Source\PSoC4/UART_UART.c ****     UART_RX_MATCH_REG = matchReg;
 443:Generated_Source\PSoC4/UART_UART.c **** }
 444:Generated_Source\PSoC4/UART_UART.c **** 
 445:Generated_Source\PSoC4/UART_UART.c **** 
 446:Generated_Source\PSoC4/UART_UART.c **** /*******************************************************************************
 447:Generated_Source\PSoC4/UART_UART.c **** * Function Name: UART_UartSetRxAddressMask
 448:Generated_Source\PSoC4/UART_UART.c **** ****************************************************************************//**
 449:Generated_Source\PSoC4/UART_UART.c **** *
 450:Generated_Source\PSoC4/UART_UART.c **** *  Sets the hardware address mask for the UART in the Multiprocessor mode.
 451:Generated_Source\PSoC4/UART_UART.c **** *
 452:Generated_Source\PSoC4/UART_UART.c **** *  \param addressMask: Address mask.
 453:Generated_Source\PSoC4/UART_UART.c **** *   - Bit value 0 – excludes bit from address comparison.
 454:Generated_Source\PSoC4/UART_UART.c **** *   - Bit value 1 – the bit needs to match with the corresponding bit
 455:Generated_Source\PSoC4/UART_UART.c **** *     of the address.
 456:Generated_Source\PSoC4/UART_UART.c **** *
 457:Generated_Source\PSoC4/UART_UART.c **** *******************************************************************************/
 458:Generated_Source\PSoC4/UART_UART.c **** void UART_UartSetRxAddressMask(uint32 addressMask)
 459:Generated_Source\PSoC4/UART_UART.c **** {
 460:Generated_Source\PSoC4/UART_UART.c ****     uint32 matchReg;
 461:Generated_Source\PSoC4/UART_UART.c **** 
 462:Generated_Source\PSoC4/UART_UART.c ****     matchReg = UART_RX_MATCH_REG;
 463:Generated_Source\PSoC4/UART_UART.c **** 
 464:Generated_Source\PSoC4/UART_UART.c ****     matchReg &= ((uint32) ~UART_RX_MATCH_MASK_MASK); /* Clear address mask bits */
 465:Generated_Source\PSoC4/UART_UART.c ****     matchReg |= ((uint32) (addressMask << UART_RX_MATCH_MASK_POS));
 466:Generated_Source\PSoC4/UART_UART.c **** 
 467:Generated_Source\PSoC4/UART_UART.c ****     UART_RX_MATCH_REG = matchReg;
 468:Generated_Source\PSoC4/UART_UART.c **** }
 469:Generated_Source\PSoC4/UART_UART.c **** 
 470:Generated_Source\PSoC4/UART_UART.c **** 
 471:Generated_Source\PSoC4/UART_UART.c **** #if(UART_UART_RX_DIRECTION)
 472:Generated_Source\PSoC4/UART_UART.c ****     /*******************************************************************************
 473:Generated_Source\PSoC4/UART_UART.c ****     * Function Name: UART_UartGetChar
 474:Generated_Source\PSoC4/UART_UART.c ****     ****************************************************************************//**
 475:Generated_Source\PSoC4/UART_UART.c ****     *
 476:Generated_Source\PSoC4/UART_UART.c ****     *  Retrieves next data element from receive buffer.
 477:Generated_Source\PSoC4/UART_UART.c ****     *  This function is designed for ASCII characters and returns a char where
 478:Generated_Source\PSoC4/UART_UART.c ****     *  1 to 255 are valid characters and 0 indicates an error occurred or no data
 479:Generated_Source\PSoC4/UART_UART.c ****     *  is present.
 480:Generated_Source\PSoC4/UART_UART.c ****     *  - RX software buffer is disabled: Returns data element retrieved from RX
 481:Generated_Source\PSoC4/UART_UART.c ****     *    FIFO.
 482:Generated_Source\PSoC4/UART_UART.c ****     *  - RX software buffer is enabled: Returns data element from the software
 483:Generated_Source\PSoC4/UART_UART.c ****     *    receive buffer.
 484:Generated_Source\PSoC4/UART_UART.c ****     *
 485:Generated_Source\PSoC4/UART_UART.c ****     *  \return
 486:Generated_Source\PSoC4/UART_UART.c ****     *   Next data element from the receive buffer. ASCII character values from
ARM GAS  C:\Users\MARLOK~1\AppData\Local\Temp\cc3IUKCT.s 			page 10


 487:Generated_Source\PSoC4/UART_UART.c ****     *   1 to 255 are valid. A returned zero signifies an error condition or no
 488:Generated_Source\PSoC4/UART_UART.c ****     *   data available.
 489:Generated_Source\PSoC4/UART_UART.c ****     *
 490:Generated_Source\PSoC4/UART_UART.c ****     *  \sideeffect
 491:Generated_Source\PSoC4/UART_UART.c ****     *   The errors bits may not correspond with reading characters due to
 492:Generated_Source\PSoC4/UART_UART.c ****     *   RX FIFO and software buffer usage.
 493:Generated_Source\PSoC4/UART_UART.c ****     *   RX software buffer is enabled: The internal software buffer overflow
 494:Generated_Source\PSoC4/UART_UART.c ****     *   is not treated as an error condition.
 495:Generated_Source\PSoC4/UART_UART.c ****     *   Check UART_rxBufferOverflow to capture that error condition.
 496:Generated_Source\PSoC4/UART_UART.c ****     *
 497:Generated_Source\PSoC4/UART_UART.c ****     *******************************************************************************/
 498:Generated_Source\PSoC4/UART_UART.c ****     uint32 UART_UartGetChar(void)
 499:Generated_Source\PSoC4/UART_UART.c ****     {
 500:Generated_Source\PSoC4/UART_UART.c ****         uint32 rxData = 0u;
 501:Generated_Source\PSoC4/UART_UART.c **** 
 502:Generated_Source\PSoC4/UART_UART.c ****         /* Reads data only if there is data to read */
 503:Generated_Source\PSoC4/UART_UART.c ****         if (0u != UART_SpiUartGetRxBufferSize())
 504:Generated_Source\PSoC4/UART_UART.c ****         {
 505:Generated_Source\PSoC4/UART_UART.c ****             rxData = UART_SpiUartReadRxData();
 506:Generated_Source\PSoC4/UART_UART.c ****         }
 507:Generated_Source\PSoC4/UART_UART.c **** 
 508:Generated_Source\PSoC4/UART_UART.c ****         if (UART_CHECK_INTR_RX(UART_INTR_RX_ERR))
 509:Generated_Source\PSoC4/UART_UART.c ****         {
 510:Generated_Source\PSoC4/UART_UART.c ****             rxData = 0u; /* Error occurred: returns zero */
 511:Generated_Source\PSoC4/UART_UART.c ****             UART_ClearRxInterruptSource(UART_INTR_RX_ERR);
 512:Generated_Source\PSoC4/UART_UART.c ****         }
 513:Generated_Source\PSoC4/UART_UART.c **** 
 514:Generated_Source\PSoC4/UART_UART.c ****         return (rxData);
 515:Generated_Source\PSoC4/UART_UART.c ****     }
 516:Generated_Source\PSoC4/UART_UART.c **** 
 517:Generated_Source\PSoC4/UART_UART.c **** 
 518:Generated_Source\PSoC4/UART_UART.c ****     /*******************************************************************************
 519:Generated_Source\PSoC4/UART_UART.c ****     * Function Name: UART_UartGetByte
 520:Generated_Source\PSoC4/UART_UART.c ****     ****************************************************************************//**
 521:Generated_Source\PSoC4/UART_UART.c ****     *
 522:Generated_Source\PSoC4/UART_UART.c ****     *  Retrieves the next data element from the receive buffer, returns the
 523:Generated_Source\PSoC4/UART_UART.c ****     *  received byte and error condition.
 524:Generated_Source\PSoC4/UART_UART.c ****     *   - The RX software buffer is disabled: returns the data element retrieved
 525:Generated_Source\PSoC4/UART_UART.c ****     *     from the RX FIFO. Undefined data will be returned if the RX FIFO is
 526:Generated_Source\PSoC4/UART_UART.c ****     *     empty.
 527:Generated_Source\PSoC4/UART_UART.c ****     *   - The RX software buffer is enabled: returns data element from the
 528:Generated_Source\PSoC4/UART_UART.c ****     *     software receive buffer.
 529:Generated_Source\PSoC4/UART_UART.c ****     *
 530:Generated_Source\PSoC4/UART_UART.c ****     *  \return
 531:Generated_Source\PSoC4/UART_UART.c ****     *   Bits 7-0 contain the next data element from the receive buffer and
 532:Generated_Source\PSoC4/UART_UART.c ****     *   other bits contain the error condition.
 533:Generated_Source\PSoC4/UART_UART.c ****     *   - UART_UART_RX_OVERFLOW - Attempt to write to a full
 534:Generated_Source\PSoC4/UART_UART.c ****     *     receiver FIFO.
 535:Generated_Source\PSoC4/UART_UART.c ****     *   - UART_UART_RX_UNDERFLOW    Attempt to read from an empty
 536:Generated_Source\PSoC4/UART_UART.c ****     *     receiver FIFO.
 537:Generated_Source\PSoC4/UART_UART.c ****     *   - UART_UART_RX_FRAME_ERROR - UART framing error detected.
 538:Generated_Source\PSoC4/UART_UART.c ****     *   - UART_UART_RX_PARITY_ERROR - UART parity error detected.
 539:Generated_Source\PSoC4/UART_UART.c ****     *
 540:Generated_Source\PSoC4/UART_UART.c ****     *  \sideeffect
 541:Generated_Source\PSoC4/UART_UART.c ****     *   The errors bits may not correspond with reading characters due to
 542:Generated_Source\PSoC4/UART_UART.c ****     *   RX FIFO and software buffer usage.
 543:Generated_Source\PSoC4/UART_UART.c ****     *   RX software buffer is enabled: The internal software buffer overflow
ARM GAS  C:\Users\MARLOK~1\AppData\Local\Temp\cc3IUKCT.s 			page 11


 544:Generated_Source\PSoC4/UART_UART.c ****     *   is not treated as an error condition.
 545:Generated_Source\PSoC4/UART_UART.c ****     *   Check UART_rxBufferOverflow to capture that error condition.
 546:Generated_Source\PSoC4/UART_UART.c ****     *
 547:Generated_Source\PSoC4/UART_UART.c ****     *******************************************************************************/
 548:Generated_Source\PSoC4/UART_UART.c ****     uint32 UART_UartGetByte(void)
 549:Generated_Source\PSoC4/UART_UART.c ****     {
 550:Generated_Source\PSoC4/UART_UART.c ****         uint32 rxData;
 551:Generated_Source\PSoC4/UART_UART.c ****         uint32 tmpStatus;
 552:Generated_Source\PSoC4/UART_UART.c **** 
 553:Generated_Source\PSoC4/UART_UART.c ****         #if (UART_CHECK_RX_SW_BUFFER)
 554:Generated_Source\PSoC4/UART_UART.c ****         {
 555:Generated_Source\PSoC4/UART_UART.c ****             UART_DisableInt();
 556:Generated_Source\PSoC4/UART_UART.c ****         }
 557:Generated_Source\PSoC4/UART_UART.c ****         #endif
 558:Generated_Source\PSoC4/UART_UART.c **** 
 559:Generated_Source\PSoC4/UART_UART.c ****         if (0u != UART_SpiUartGetRxBufferSize())
 560:Generated_Source\PSoC4/UART_UART.c ****         {
 561:Generated_Source\PSoC4/UART_UART.c ****             /* Enables interrupt to receive more bytes: at least one byte is in
 562:Generated_Source\PSoC4/UART_UART.c ****             * buffer.
 563:Generated_Source\PSoC4/UART_UART.c ****             */
 564:Generated_Source\PSoC4/UART_UART.c ****             #if (UART_CHECK_RX_SW_BUFFER)
 565:Generated_Source\PSoC4/UART_UART.c ****             {
 566:Generated_Source\PSoC4/UART_UART.c ****                 UART_EnableInt();
 567:Generated_Source\PSoC4/UART_UART.c ****             }
 568:Generated_Source\PSoC4/UART_UART.c ****             #endif
 569:Generated_Source\PSoC4/UART_UART.c **** 
 570:Generated_Source\PSoC4/UART_UART.c ****             /* Get received byte */
 571:Generated_Source\PSoC4/UART_UART.c ****             rxData = UART_SpiUartReadRxData();
 572:Generated_Source\PSoC4/UART_UART.c ****         }
 573:Generated_Source\PSoC4/UART_UART.c ****         else
 574:Generated_Source\PSoC4/UART_UART.c ****         {
 575:Generated_Source\PSoC4/UART_UART.c ****             /* Reads a byte directly from RX FIFO: underflow is raised in the
 576:Generated_Source\PSoC4/UART_UART.c ****             * case of empty. Otherwise the first received byte will be read.
 577:Generated_Source\PSoC4/UART_UART.c ****             */
 578:Generated_Source\PSoC4/UART_UART.c ****             rxData = UART_RX_FIFO_RD_REG;
 579:Generated_Source\PSoC4/UART_UART.c **** 
 580:Generated_Source\PSoC4/UART_UART.c **** 
 581:Generated_Source\PSoC4/UART_UART.c ****             /* Enables interrupt to receive more bytes. */
 582:Generated_Source\PSoC4/UART_UART.c ****             #if (UART_CHECK_RX_SW_BUFFER)
 583:Generated_Source\PSoC4/UART_UART.c ****             {
 584:Generated_Source\PSoC4/UART_UART.c **** 
 585:Generated_Source\PSoC4/UART_UART.c ****                 /* The byte has been read from RX FIFO. Clear RX interrupt to
 586:Generated_Source\PSoC4/UART_UART.c ****                 * not involve interrupt handler when RX FIFO is empty.
 587:Generated_Source\PSoC4/UART_UART.c ****                 */
 588:Generated_Source\PSoC4/UART_UART.c ****                 UART_ClearRxInterruptSource(UART_INTR_RX_NOT_EMPTY);
 589:Generated_Source\PSoC4/UART_UART.c **** 
 590:Generated_Source\PSoC4/UART_UART.c ****                 UART_EnableInt();
 591:Generated_Source\PSoC4/UART_UART.c ****             }
 592:Generated_Source\PSoC4/UART_UART.c ****             #endif
 593:Generated_Source\PSoC4/UART_UART.c ****         }
 594:Generated_Source\PSoC4/UART_UART.c **** 
 595:Generated_Source\PSoC4/UART_UART.c ****         /* Get and clear RX error mask */
 596:Generated_Source\PSoC4/UART_UART.c ****         tmpStatus = (UART_GetRxInterruptSource() & UART_INTR_RX_ERR);
 597:Generated_Source\PSoC4/UART_UART.c ****         UART_ClearRxInterruptSource(UART_INTR_RX_ERR);
 598:Generated_Source\PSoC4/UART_UART.c **** 
 599:Generated_Source\PSoC4/UART_UART.c ****         /* Puts together data and error status:
 600:Generated_Source\PSoC4/UART_UART.c ****         * MP mode and accept address: 9th bit is set to notify mark.
ARM GAS  C:\Users\MARLOK~1\AppData\Local\Temp\cc3IUKCT.s 			page 12


 601:Generated_Source\PSoC4/UART_UART.c ****         */
 602:Generated_Source\PSoC4/UART_UART.c ****         rxData |= ((uint32) (tmpStatus << 8u));
 603:Generated_Source\PSoC4/UART_UART.c **** 
 604:Generated_Source\PSoC4/UART_UART.c ****         return (rxData);
 605:Generated_Source\PSoC4/UART_UART.c ****     }
 606:Generated_Source\PSoC4/UART_UART.c **** 
 607:Generated_Source\PSoC4/UART_UART.c **** 
 608:Generated_Source\PSoC4/UART_UART.c ****     #if !(UART_CY_SCBIP_V0 || UART_CY_SCBIP_V1)
 609:Generated_Source\PSoC4/UART_UART.c ****         /*******************************************************************************
 610:Generated_Source\PSoC4/UART_UART.c ****         * Function Name: UART_UartSetRtsPolarity
 611:Generated_Source\PSoC4/UART_UART.c ****         ****************************************************************************//**
 612:Generated_Source\PSoC4/UART_UART.c ****         *
 613:Generated_Source\PSoC4/UART_UART.c ****         *  Sets active polarity of RTS output signal.
 614:Generated_Source\PSoC4/UART_UART.c ****         *  Only available for PSoC 4100 BLE / PSoC 4200 BLE / PSoC 4100M / PSoC 4200M /
 615:Generated_Source\PSoC4/UART_UART.c ****         *  PSoC 4200L / PSoC 4000S / PSoC 4100S / PSoC Analog Coprocessor devices.
 616:Generated_Source\PSoC4/UART_UART.c ****         *
 617:Generated_Source\PSoC4/UART_UART.c ****         *  \param polarity: Active polarity of RTS output signal.
 618:Generated_Source\PSoC4/UART_UART.c ****         *   - UART_UART_RTS_ACTIVE_LOW  - RTS signal is active low.
 619:Generated_Source\PSoC4/UART_UART.c ****         *   - UART_UART_RTS_ACTIVE_HIGH - RTS signal is active high.
 620:Generated_Source\PSoC4/UART_UART.c ****         *
 621:Generated_Source\PSoC4/UART_UART.c ****         *******************************************************************************/
 622:Generated_Source\PSoC4/UART_UART.c ****         void UART_UartSetRtsPolarity(uint32 polarity)
 623:Generated_Source\PSoC4/UART_UART.c ****         {
 624:Generated_Source\PSoC4/UART_UART.c ****             if(0u != polarity)
 625:Generated_Source\PSoC4/UART_UART.c ****             {
 626:Generated_Source\PSoC4/UART_UART.c ****                 UART_UART_FLOW_CTRL_REG |= (uint32)  UART_UART_FLOW_CTRL_RTS_POLARITY;
 627:Generated_Source\PSoC4/UART_UART.c ****             }
 628:Generated_Source\PSoC4/UART_UART.c ****             else
 629:Generated_Source\PSoC4/UART_UART.c ****             {
 630:Generated_Source\PSoC4/UART_UART.c ****                 UART_UART_FLOW_CTRL_REG &= (uint32) ~UART_UART_FLOW_CTRL_RTS_POLARITY;
 631:Generated_Source\PSoC4/UART_UART.c ****             }
 632:Generated_Source\PSoC4/UART_UART.c ****         }
 633:Generated_Source\PSoC4/UART_UART.c **** 
 634:Generated_Source\PSoC4/UART_UART.c **** 
 635:Generated_Source\PSoC4/UART_UART.c ****         /*******************************************************************************
 636:Generated_Source\PSoC4/UART_UART.c ****         * Function Name: UART_UartSetRtsFifoLevel
 637:Generated_Source\PSoC4/UART_UART.c ****         ****************************************************************************//**
 638:Generated_Source\PSoC4/UART_UART.c ****         *
 639:Generated_Source\PSoC4/UART_UART.c ****         *  Sets level in the RX FIFO for RTS signal activation.
 640:Generated_Source\PSoC4/UART_UART.c ****         *  While the RX FIFO has fewer entries than the RX FIFO level the RTS signal
 641:Generated_Source\PSoC4/UART_UART.c ****         *  remains active, otherwise the RTS signal becomes inactive.
 642:Generated_Source\PSoC4/UART_UART.c ****         *  Only available for PSoC 4100 BLE / PSoC 4200 BLE / PSoC 4100M / PSoC 4200M /
 643:Generated_Source\PSoC4/UART_UART.c ****         *  PSoC 4200L / PSoC 4000S / PSoC 4100S / PSoC Analog Coprocessor devices.
 644:Generated_Source\PSoC4/UART_UART.c ****         *
 645:Generated_Source\PSoC4/UART_UART.c ****         *  \param level: Level in the RX FIFO for RTS signal activation.
 646:Generated_Source\PSoC4/UART_UART.c ****         *   The range of valid level values is between 0 and RX FIFO depth - 1.
 647:Generated_Source\PSoC4/UART_UART.c ****         *   Setting level value to 0 disables RTS signal activation.
 648:Generated_Source\PSoC4/UART_UART.c ****         *
 649:Generated_Source\PSoC4/UART_UART.c ****         *******************************************************************************/
 650:Generated_Source\PSoC4/UART_UART.c ****         void UART_UartSetRtsFifoLevel(uint32 level)
 651:Generated_Source\PSoC4/UART_UART.c ****         {
 652:Generated_Source\PSoC4/UART_UART.c ****             uint32 uartFlowCtrl;
 653:Generated_Source\PSoC4/UART_UART.c **** 
 654:Generated_Source\PSoC4/UART_UART.c ****             uartFlowCtrl = UART_UART_FLOW_CTRL_REG;
 655:Generated_Source\PSoC4/UART_UART.c **** 
 656:Generated_Source\PSoC4/UART_UART.c ****             uartFlowCtrl &= ((uint32) ~UART_UART_FLOW_CTRL_TRIGGER_LEVEL_MASK); /* Clear level mask
 657:Generated_Source\PSoC4/UART_UART.c ****             uartFlowCtrl |= ((uint32) (UART_UART_FLOW_CTRL_TRIGGER_LEVEL_MASK & level));
ARM GAS  C:\Users\MARLOK~1\AppData\Local\Temp\cc3IUKCT.s 			page 13


 658:Generated_Source\PSoC4/UART_UART.c **** 
 659:Generated_Source\PSoC4/UART_UART.c ****             UART_UART_FLOW_CTRL_REG = uartFlowCtrl;
 660:Generated_Source\PSoC4/UART_UART.c ****         }
 661:Generated_Source\PSoC4/UART_UART.c ****     #endif /* !(UART_CY_SCBIP_V0 || UART_CY_SCBIP_V1) */
 662:Generated_Source\PSoC4/UART_UART.c **** 
 663:Generated_Source\PSoC4/UART_UART.c **** #endif /* (UART_UART_RX_DIRECTION) */
 664:Generated_Source\PSoC4/UART_UART.c **** 
 665:Generated_Source\PSoC4/UART_UART.c **** 
 666:Generated_Source\PSoC4/UART_UART.c **** #if(UART_UART_TX_DIRECTION)
 667:Generated_Source\PSoC4/UART_UART.c ****     /*******************************************************************************
 668:Generated_Source\PSoC4/UART_UART.c ****     * Function Name: UART_UartPutString
 669:Generated_Source\PSoC4/UART_UART.c ****     ****************************************************************************//**
 670:Generated_Source\PSoC4/UART_UART.c ****     *
 671:Generated_Source\PSoC4/UART_UART.c ****     *  Places a NULL terminated string in the transmit buffer to be sent at the
 672:Generated_Source\PSoC4/UART_UART.c ****     *  next available bus time.
 673:Generated_Source\PSoC4/UART_UART.c ****     *  This function is blocking and waits until there is a space available to put
 674:Generated_Source\PSoC4/UART_UART.c ****     *  requested data in transmit buffer.
 675:Generated_Source\PSoC4/UART_UART.c ****     *
 676:Generated_Source\PSoC4/UART_UART.c ****     *  \param string: pointer to the null terminated string array to be placed in the
 677:Generated_Source\PSoC4/UART_UART.c ****     *   transmit buffer.
 678:Generated_Source\PSoC4/UART_UART.c ****     *
 679:Generated_Source\PSoC4/UART_UART.c ****     *******************************************************************************/
 680:Generated_Source\PSoC4/UART_UART.c ****     void UART_UartPutString(const char8 string[])
 681:Generated_Source\PSoC4/UART_UART.c ****     {
 682:Generated_Source\PSoC4/UART_UART.c ****         uint32 bufIndex;
 683:Generated_Source\PSoC4/UART_UART.c **** 
 684:Generated_Source\PSoC4/UART_UART.c ****         bufIndex = 0u;
 685:Generated_Source\PSoC4/UART_UART.c **** 
 686:Generated_Source\PSoC4/UART_UART.c ****         /* Blocks the control flow until all data has been sent */
 687:Generated_Source\PSoC4/UART_UART.c ****         while(string[bufIndex] != ((char8) 0))
 688:Generated_Source\PSoC4/UART_UART.c ****         {
 689:Generated_Source\PSoC4/UART_UART.c ****             UART_UartPutChar((uint32) string[bufIndex]);
 690:Generated_Source\PSoC4/UART_UART.c ****             bufIndex++;
 691:Generated_Source\PSoC4/UART_UART.c ****         }
 692:Generated_Source\PSoC4/UART_UART.c ****     }
 693:Generated_Source\PSoC4/UART_UART.c **** 
 694:Generated_Source\PSoC4/UART_UART.c **** 
 695:Generated_Source\PSoC4/UART_UART.c ****     /*******************************************************************************
 696:Generated_Source\PSoC4/UART_UART.c ****     * Function Name: UART_UartPutCRLF
 697:Generated_Source\PSoC4/UART_UART.c ****     ****************************************************************************//**
 698:Generated_Source\PSoC4/UART_UART.c ****     *
 699:Generated_Source\PSoC4/UART_UART.c ****     *  Places byte of data followed by a carriage return (0x0D) and line feed
 700:Generated_Source\PSoC4/UART_UART.c ****     *  (0x0A) in the transmit buffer.
 701:Generated_Source\PSoC4/UART_UART.c ****     *  This function is blocking and waits until there is a space available to put
 702:Generated_Source\PSoC4/UART_UART.c ****     *  all requested data in transmit buffer.
 703:Generated_Source\PSoC4/UART_UART.c ****     *
 704:Generated_Source\PSoC4/UART_UART.c ****     *  \param txDataByte: the data to be transmitted.
 705:Generated_Source\PSoC4/UART_UART.c ****     *
 706:Generated_Source\PSoC4/UART_UART.c ****     *******************************************************************************/
 707:Generated_Source\PSoC4/UART_UART.c ****     void UART_UartPutCRLF(uint32 txDataByte)
 708:Generated_Source\PSoC4/UART_UART.c ****     {
 709:Generated_Source\PSoC4/UART_UART.c ****         UART_UartPutChar(txDataByte);  /* Blocks control flow until all data has been sent */
 710:Generated_Source\PSoC4/UART_UART.c ****         UART_UartPutChar(0x0Du);       /* Blocks control flow until all data has been sent */
 711:Generated_Source\PSoC4/UART_UART.c ****         UART_UartPutChar(0x0Au);       /* Blocks control flow until all data has been sent */
 712:Generated_Source\PSoC4/UART_UART.c ****     }
 713:Generated_Source\PSoC4/UART_UART.c **** 
 714:Generated_Source\PSoC4/UART_UART.c **** 
ARM GAS  C:\Users\MARLOK~1\AppData\Local\Temp\cc3IUKCT.s 			page 14


 715:Generated_Source\PSoC4/UART_UART.c ****     #if !(UART_CY_SCBIP_V0 || UART_CY_SCBIP_V1)
 716:Generated_Source\PSoC4/UART_UART.c ****         /*******************************************************************************
 717:Generated_Source\PSoC4/UART_UART.c ****         * Function Name: UARTSCB_UartEnableCts
 718:Generated_Source\PSoC4/UART_UART.c ****         ****************************************************************************//**
 719:Generated_Source\PSoC4/UART_UART.c ****         *
 720:Generated_Source\PSoC4/UART_UART.c ****         *  Enables usage of CTS input signal by the UART transmitter.
 721:Generated_Source\PSoC4/UART_UART.c ****         *  Only available for PSoC 4100 BLE / PSoC 4200 BLE / PSoC 4100M / PSoC 4200M /
 722:Generated_Source\PSoC4/UART_UART.c ****         *  PSoC 4200L / PSoC 4000S / PSoC 4100S / PSoC Analog Coprocessor devices.
 723:Generated_Source\PSoC4/UART_UART.c ****         *
 724:Generated_Source\PSoC4/UART_UART.c ****         *******************************************************************************/
 725:Generated_Source\PSoC4/UART_UART.c ****         void UART_UartEnableCts(void)
 726:Generated_Source\PSoC4/UART_UART.c ****         {
 727:Generated_Source\PSoC4/UART_UART.c ****             UART_UART_FLOW_CTRL_REG |= (uint32)  UART_UART_FLOW_CTRL_CTS_ENABLE;
 728:Generated_Source\PSoC4/UART_UART.c ****         }
 729:Generated_Source\PSoC4/UART_UART.c **** 
 730:Generated_Source\PSoC4/UART_UART.c **** 
 731:Generated_Source\PSoC4/UART_UART.c ****         /*******************************************************************************
 732:Generated_Source\PSoC4/UART_UART.c ****         * Function Name: UART_UartDisableCts
 733:Generated_Source\PSoC4/UART_UART.c ****         ****************************************************************************//**
 734:Generated_Source\PSoC4/UART_UART.c ****         *
 735:Generated_Source\PSoC4/UART_UART.c ****         *  Disables usage of CTS input signal by the UART transmitter.
 736:Generated_Source\PSoC4/UART_UART.c ****         *  Only available for PSoC 4100 BLE / PSoC 4200 BLE / PSoC 4100M / PSoC 4200M /
 737:Generated_Source\PSoC4/UART_UART.c ****         *  PSoC 4200L / PSoC 4000S / PSoC 4100S / PSoC Analog Coprocessor devices.
 738:Generated_Source\PSoC4/UART_UART.c ****         *
 739:Generated_Source\PSoC4/UART_UART.c ****         *******************************************************************************/
 740:Generated_Source\PSoC4/UART_UART.c ****         void UART_UartDisableCts(void)
 741:Generated_Source\PSoC4/UART_UART.c ****         {
 742:Generated_Source\PSoC4/UART_UART.c ****             UART_UART_FLOW_CTRL_REG &= (uint32) ~UART_UART_FLOW_CTRL_CTS_ENABLE;
 743:Generated_Source\PSoC4/UART_UART.c ****         }
 744:Generated_Source\PSoC4/UART_UART.c **** 
 745:Generated_Source\PSoC4/UART_UART.c **** 
 746:Generated_Source\PSoC4/UART_UART.c ****         /*******************************************************************************
 747:Generated_Source\PSoC4/UART_UART.c ****         * Function Name: UART_UartSetCtsPolarity
 748:Generated_Source\PSoC4/UART_UART.c ****         ****************************************************************************//**
 749:Generated_Source\PSoC4/UART_UART.c ****         *
 750:Generated_Source\PSoC4/UART_UART.c ****         *  Sets active polarity of CTS input signal.
 751:Generated_Source\PSoC4/UART_UART.c ****         *  Only available for PSoC 4100 BLE / PSoC 4200 BLE / PSoC 4100M / PSoC 4200M /
 752:Generated_Source\PSoC4/UART_UART.c ****         *  PSoC 4200L / PSoC 4000S / PSoC 4100S / PSoC Analog Coprocessor devices.
 753:Generated_Source\PSoC4/UART_UART.c ****         *
 754:Generated_Source\PSoC4/UART_UART.c ****         * \param
 755:Generated_Source\PSoC4/UART_UART.c ****         * polarity: Active polarity of CTS output signal.
 756:Generated_Source\PSoC4/UART_UART.c ****         *   - UART_UART_CTS_ACTIVE_LOW  - CTS signal is active low.
 757:Generated_Source\PSoC4/UART_UART.c ****         *   - UART_UART_CTS_ACTIVE_HIGH - CTS signal is active high.
 758:Generated_Source\PSoC4/UART_UART.c ****         *
 759:Generated_Source\PSoC4/UART_UART.c ****         *******************************************************************************/
 760:Generated_Source\PSoC4/UART_UART.c ****         void UART_UartSetCtsPolarity(uint32 polarity)
 761:Generated_Source\PSoC4/UART_UART.c ****         {
 762:Generated_Source\PSoC4/UART_UART.c ****             if (0u != polarity)
 763:Generated_Source\PSoC4/UART_UART.c ****             {
 764:Generated_Source\PSoC4/UART_UART.c ****                 UART_UART_FLOW_CTRL_REG |= (uint32)  UART_UART_FLOW_CTRL_CTS_POLARITY;
 765:Generated_Source\PSoC4/UART_UART.c ****             }
 766:Generated_Source\PSoC4/UART_UART.c ****             else
 767:Generated_Source\PSoC4/UART_UART.c ****             {
 768:Generated_Source\PSoC4/UART_UART.c ****                 UART_UART_FLOW_CTRL_REG &= (uint32) ~UART_UART_FLOW_CTRL_CTS_POLARITY;
 769:Generated_Source\PSoC4/UART_UART.c ****             }
 770:Generated_Source\PSoC4/UART_UART.c ****         }
 771:Generated_Source\PSoC4/UART_UART.c ****     #endif /* !(UART_CY_SCBIP_V0 || UART_CY_SCBIP_V1) */
ARM GAS  C:\Users\MARLOK~1\AppData\Local\Temp\cc3IUKCT.s 			page 15


 772:Generated_Source\PSoC4/UART_UART.c **** 
 773:Generated_Source\PSoC4/UART_UART.c **** 
 774:Generated_Source\PSoC4/UART_UART.c ****     /*******************************************************************************
 775:Generated_Source\PSoC4/UART_UART.c ****     * Function Name: UART_UartSendBreakBlocking
 776:Generated_Source\PSoC4/UART_UART.c ****     ****************************************************************************//**
 777:Generated_Source\PSoC4/UART_UART.c ****     *
 778:Generated_Source\PSoC4/UART_UART.c ****     * Sends a break condition (logic low) of specified width on UART TX line.
 779:Generated_Source\PSoC4/UART_UART.c ****     * Blocks until break is completed. Only call this function when UART TX FIFO
 780:Generated_Source\PSoC4/UART_UART.c ****     * and shifter are empty.
 781:Generated_Source\PSoC4/UART_UART.c ****     *
 782:Generated_Source\PSoC4/UART_UART.c ****     * \param breakWidth
 783:Generated_Source\PSoC4/UART_UART.c ****     * Width of break condition. Valid range is 4 to 16 bits.
 784:Generated_Source\PSoC4/UART_UART.c ****     *
 785:Generated_Source\PSoC4/UART_UART.c ****     * \note
 786:Generated_Source\PSoC4/UART_UART.c ****     * Before sending break all UART TX interrupt sources are disabled. The state
 787:Generated_Source\PSoC4/UART_UART.c ****     * of UART TX interrupt sources is restored before function returns.
 788:Generated_Source\PSoC4/UART_UART.c ****     *
 789:Generated_Source\PSoC4/UART_UART.c ****     * \sideeffect
 790:Generated_Source\PSoC4/UART_UART.c ****     * If this function is called while there is data in the TX FIFO or shifter that
 791:Generated_Source\PSoC4/UART_UART.c ****     * data will be shifted out in packets the size of breakWidth.
 792:Generated_Source\PSoC4/UART_UART.c ****     *
 793:Generated_Source\PSoC4/UART_UART.c ****     *******************************************************************************/
 794:Generated_Source\PSoC4/UART_UART.c ****     void UART_UartSendBreakBlocking(uint32 breakWidth)
 795:Generated_Source\PSoC4/UART_UART.c ****     {
 796:Generated_Source\PSoC4/UART_UART.c ****         uint32 txCtrlReg;
 797:Generated_Source\PSoC4/UART_UART.c ****         uint32 txIntrReg;
 798:Generated_Source\PSoC4/UART_UART.c **** 
 799:Generated_Source\PSoC4/UART_UART.c ****         /* Disable all UART TX interrupt source and clear UART TX Done history */
 800:Generated_Source\PSoC4/UART_UART.c ****         txIntrReg = UART_GetTxInterruptMode();
 801:Generated_Source\PSoC4/UART_UART.c ****         UART_SetTxInterruptMode(0u);
 802:Generated_Source\PSoC4/UART_UART.c ****         UART_ClearTxInterruptSource(UART_INTR_TX_UART_DONE);
 803:Generated_Source\PSoC4/UART_UART.c **** 
 804:Generated_Source\PSoC4/UART_UART.c ****         /* Store TX CTRL configuration */
 805:Generated_Source\PSoC4/UART_UART.c ****         txCtrlReg = UART_TX_CTRL_REG;
 806:Generated_Source\PSoC4/UART_UART.c **** 
 807:Generated_Source\PSoC4/UART_UART.c ****         /* Set break width */
 808:Generated_Source\PSoC4/UART_UART.c ****         UART_TX_CTRL_REG = (UART_TX_CTRL_REG & (uint32) ~UART_TX_CTRL_DATA_WIDTH_MASK) |
 809:Generated_Source\PSoC4/UART_UART.c ****                                         UART_GET_TX_CTRL_DATA_WIDTH(breakWidth);
 810:Generated_Source\PSoC4/UART_UART.c **** 
 811:Generated_Source\PSoC4/UART_UART.c ****         /* Generate break */
 812:Generated_Source\PSoC4/UART_UART.c ****         UART_TX_FIFO_WR_REG = 0u;
 813:Generated_Source\PSoC4/UART_UART.c **** 
 814:Generated_Source\PSoC4/UART_UART.c ****         /* Wait for break completion */
 815:Generated_Source\PSoC4/UART_UART.c ****         while (0u == (UART_GetTxInterruptSource() & UART_INTR_TX_UART_DONE))
 816:Generated_Source\PSoC4/UART_UART.c ****         {
 817:Generated_Source\PSoC4/UART_UART.c ****         }
 818:Generated_Source\PSoC4/UART_UART.c **** 
 819:Generated_Source\PSoC4/UART_UART.c ****         /* Clear all UART TX interrupt sources to  */
 820:Generated_Source\PSoC4/UART_UART.c ****         UART_ClearTxInterruptSource(UART_INTR_TX_ALL);
 821:Generated_Source\PSoC4/UART_UART.c **** 
 822:Generated_Source\PSoC4/UART_UART.c ****         /* Restore TX interrupt sources and data width */
 823:Generated_Source\PSoC4/UART_UART.c ****         UART_TX_CTRL_REG = txCtrlReg;
 824:Generated_Source\PSoC4/UART_UART.c ****         UART_SetTxInterruptMode(txIntrReg);
 825:Generated_Source\PSoC4/UART_UART.c ****     }
 826:Generated_Source\PSoC4/UART_UART.c **** #endif /* (UART_UART_TX_DIRECTION) */
 827:Generated_Source\PSoC4/UART_UART.c **** 
 828:Generated_Source\PSoC4/UART_UART.c **** 
ARM GAS  C:\Users\MARLOK~1\AppData\Local\Temp\cc3IUKCT.s 			page 16


 829:Generated_Source\PSoC4/UART_UART.c **** #if (UART_UART_WAKE_ENABLE_CONST)
 830:Generated_Source\PSoC4/UART_UART.c ****     /*******************************************************************************
 831:Generated_Source\PSoC4/UART_UART.c ****     * Function Name: UART_UartSaveConfig
 832:Generated_Source\PSoC4/UART_UART.c ****     ****************************************************************************//**
 833:Generated_Source\PSoC4/UART_UART.c ****     *
 834:Generated_Source\PSoC4/UART_UART.c ****     *  Clears and enables an interrupt on a falling edge of the Rx input. The GPIO
 835:Generated_Source\PSoC4/UART_UART.c ****     *  interrupt does not track in the active mode, therefore requires to be
 836:Generated_Source\PSoC4/UART_UART.c ****     *  cleared by this API.
 837:Generated_Source\PSoC4/UART_UART.c ****     *
 838:Generated_Source\PSoC4/UART_UART.c ****     *******************************************************************************/
 839:Generated_Source\PSoC4/UART_UART.c ****     void UART_UartSaveConfig(void)
 840:Generated_Source\PSoC4/UART_UART.c ****     {
 841:Generated_Source\PSoC4/UART_UART.c ****     #if (UART_UART_RX_WAKEUP_IRQ)
 842:Generated_Source\PSoC4/UART_UART.c ****         /* Set SKIP_START if requested (set by default). */
 843:Generated_Source\PSoC4/UART_UART.c ****         if (0u != UART_skipStart)
 844:Generated_Source\PSoC4/UART_UART.c ****         {
 845:Generated_Source\PSoC4/UART_UART.c ****             UART_UART_RX_CTRL_REG |= (uint32)  UART_UART_RX_CTRL_SKIP_START;
 846:Generated_Source\PSoC4/UART_UART.c ****         }
 847:Generated_Source\PSoC4/UART_UART.c ****         else
 848:Generated_Source\PSoC4/UART_UART.c ****         {
 849:Generated_Source\PSoC4/UART_UART.c ****             UART_UART_RX_CTRL_REG &= (uint32) ~UART_UART_RX_CTRL_SKIP_START;
 850:Generated_Source\PSoC4/UART_UART.c ****         }
 851:Generated_Source\PSoC4/UART_UART.c **** 
 852:Generated_Source\PSoC4/UART_UART.c ****         /* Clear RX GPIO interrupt status and pending interrupt in NVIC because
 853:Generated_Source\PSoC4/UART_UART.c ****         * falling edge on RX line occurs while UART communication in active mode.
 854:Generated_Source\PSoC4/UART_UART.c ****         * Enable interrupt: next interrupt trigger should wakeup device.
 855:Generated_Source\PSoC4/UART_UART.c ****         */
 856:Generated_Source\PSoC4/UART_UART.c ****         UART_CLEAR_UART_RX_WAKE_INTR;
 857:Generated_Source\PSoC4/UART_UART.c ****         UART_RxWakeClearPendingInt();
 858:Generated_Source\PSoC4/UART_UART.c ****         UART_RxWakeEnableInt();
 859:Generated_Source\PSoC4/UART_UART.c ****     #endif /* (UART_UART_RX_WAKEUP_IRQ) */
 860:Generated_Source\PSoC4/UART_UART.c ****     }
 861:Generated_Source\PSoC4/UART_UART.c **** 
 862:Generated_Source\PSoC4/UART_UART.c **** 
 863:Generated_Source\PSoC4/UART_UART.c ****     /*******************************************************************************
 864:Generated_Source\PSoC4/UART_UART.c ****     * Function Name: UART_UartRestoreConfig
 865:Generated_Source\PSoC4/UART_UART.c ****     ****************************************************************************//**
 866:Generated_Source\PSoC4/UART_UART.c ****     *
 867:Generated_Source\PSoC4/UART_UART.c ****     *  Disables the RX GPIO interrupt. Until this function is called the interrupt
 868:Generated_Source\PSoC4/UART_UART.c ****     *  remains active and triggers on every falling edge of the UART RX line.
 869:Generated_Source\PSoC4/UART_UART.c ****     *
 870:Generated_Source\PSoC4/UART_UART.c ****     *******************************************************************************/
 871:Generated_Source\PSoC4/UART_UART.c ****     void UART_UartRestoreConfig(void)
 872:Generated_Source\PSoC4/UART_UART.c ****     {
 873:Generated_Source\PSoC4/UART_UART.c ****     #if (UART_UART_RX_WAKEUP_IRQ)
 874:Generated_Source\PSoC4/UART_UART.c ****         /* Disable interrupt: no more triggers in active mode */
 875:Generated_Source\PSoC4/UART_UART.c ****         UART_RxWakeDisableInt();
 876:Generated_Source\PSoC4/UART_UART.c ****     #endif /* (UART_UART_RX_WAKEUP_IRQ) */
 877:Generated_Source\PSoC4/UART_UART.c ****     }
 878:Generated_Source\PSoC4/UART_UART.c **** 
 879:Generated_Source\PSoC4/UART_UART.c **** 
 880:Generated_Source\PSoC4/UART_UART.c ****     #if (UART_UART_RX_WAKEUP_IRQ)
 881:Generated_Source\PSoC4/UART_UART.c ****         /*******************************************************************************
 882:Generated_Source\PSoC4/UART_UART.c ****         * Function Name: UART_UART_WAKEUP_ISR
 883:Generated_Source\PSoC4/UART_UART.c ****         ****************************************************************************//**
 884:Generated_Source\PSoC4/UART_UART.c ****         *
 885:Generated_Source\PSoC4/UART_UART.c ****         *  Handles the Interrupt Service Routine for the SCB UART mode GPIO wakeup
ARM GAS  C:\Users\MARLOK~1\AppData\Local\Temp\cc3IUKCT.s 			page 17


 886:Generated_Source\PSoC4/UART_UART.c ****         *  event. This event is configured to trigger on a falling edge of the RX line.
 887:Generated_Source\PSoC4/UART_UART.c ****         *
 888:Generated_Source\PSoC4/UART_UART.c ****         *******************************************************************************/
 889:Generated_Source\PSoC4/UART_UART.c ****         CY_ISR(UART_UART_WAKEUP_ISR)
 890:Generated_Source\PSoC4/UART_UART.c ****         {
  28              		.loc 1 890 0
  29              		.cfi_startproc
  30              		@ args = 0, pretend = 0, frame = 0
  31              		@ frame_needed = 0, uses_anonymous_args = 0
  32 0000 10B5     		push	{r4, lr}
  33              		.cfi_def_cfa_offset 8
  34              		.cfi_offset 4, -8
  35              		.cfi_offset 14, -4
 891:Generated_Source\PSoC4/UART_UART.c ****         #ifdef UART_UART_WAKEUP_ISR_ENTRY_CALLBACK
 892:Generated_Source\PSoC4/UART_UART.c ****             UART_UART_WAKEUP_ISR_EntryCallback();
 893:Generated_Source\PSoC4/UART_UART.c ****         #endif /* UART_UART_WAKEUP_ISR_ENTRY_CALLBACK */
 894:Generated_Source\PSoC4/UART_UART.c **** 
 895:Generated_Source\PSoC4/UART_UART.c ****             UART_CLEAR_UART_RX_WAKE_INTR;
  36              		.loc 1 895 0
  37 0002 FFF7FEFF 		bl	UART_rx_wake_ClearInterrupt
  38              	.LVL0:
 896:Generated_Source\PSoC4/UART_UART.c **** 
 897:Generated_Source\PSoC4/UART_UART.c ****         #ifdef UART_UART_WAKEUP_ISR_EXIT_CALLBACK
 898:Generated_Source\PSoC4/UART_UART.c ****             UART_UART_WAKEUP_ISR_ExitCallback();
 899:Generated_Source\PSoC4/UART_UART.c ****         #endif /* UART_UART_WAKEUP_ISR_EXIT_CALLBACK */
 900:Generated_Source\PSoC4/UART_UART.c ****         }
  39              		.loc 1 900 0
  40              		@ sp needed
  41 0006 10BD     		pop	{r4, pc}
  42              		.cfi_endproc
  43              	.LFE18:
  44              		.size	UART_UART_WAKEUP_ISR, .-UART_UART_WAKEUP_ISR
  45              		.section	.text.UART_UartInit,"ax",%progbits
  46              		.align	1
  47              		.global	UART_UartInit
  48              		.code	16
  49              		.thumb_func
  50              		.type	UART_UartInit, %function
  51              	UART_UartInit:
  52              	.LFB1:
 248:Generated_Source\PSoC4/UART_UART.c ****         /* Configure UART interface */
  53              		.loc 1 248 0
  54              		.cfi_startproc
  55              		@ args = 0, pretend = 0, frame = 0
  56              		@ frame_needed = 0, uses_anonymous_args = 0
  57 0000 10B5     		push	{r4, lr}
  58              		.cfi_def_cfa_offset 8
  59              		.cfi_offset 4, -8
  60              		.cfi_offset 14, -4
 253:Generated_Source\PSoC4/UART_UART.c **** 
  61              		.loc 1 253 0
  62 0002 0024     		movs	r4, #0
 258:Generated_Source\PSoC4/UART_UART.c ****         UART_RX_MATCH_REG     = UART_UART_DEFAULT_RX_MATCH_REG;
  63              		.loc 1 258 0
  64 0004 0721     		movs	r1, #7
 250:Generated_Source\PSoC4/UART_UART.c **** 
  65              		.loc 1 250 0
ARM GAS  C:\Users\MARLOK~1\AppData\Local\Temp\cc3IUKCT.s 			page 18


  66 0006 1A4A     		ldr	r2, .L3
  67 0008 1A4B     		ldr	r3, .L3+4
 279:Generated_Source\PSoC4/UART_UART.c ****         CyIntSetPriority(UART_RX_WAKE_ISR_NUMBER, UART_RX_WAKE_ISR_PRIORITY);
  68              		.loc 1 279 0
  69 000a 2000     		movs	r0, r4
 250:Generated_Source\PSoC4/UART_UART.c **** 
  70              		.loc 1 250 0
  71 000c 1A60     		str	r2, [r3]
 253:Generated_Source\PSoC4/UART_UART.c **** 
  72              		.loc 1 253 0
  73 000e 1A4B     		ldr	r3, .L3+8
 256:Generated_Source\PSoC4/UART_UART.c ****         UART_RX_CTRL_REG      = UART_UART_DEFAULT_RX_CTRL;
  74              		.loc 1 256 0
  75 0010 1A4A     		ldr	r2, .L3+12
 253:Generated_Source\PSoC4/UART_UART.c **** 
  76              		.loc 1 253 0
  77 0012 1C60     		str	r4, [r3]
 256:Generated_Source\PSoC4/UART_UART.c ****         UART_RX_CTRL_REG      = UART_UART_DEFAULT_RX_CTRL;
  78              		.loc 1 256 0
  79 0014 1A4B     		ldr	r3, .L3+16
 305:Generated_Source\PSoC4/UART_UART.c **** #endif /* (UART_SCB_MODE_UNCONFIG_CONST_CFG) */
  80              		.loc 1 305 0
  81              		@ sp needed
 256:Generated_Source\PSoC4/UART_UART.c ****         UART_RX_CTRL_REG      = UART_UART_DEFAULT_RX_CTRL;
  82              		.loc 1 256 0
  83 0016 1A60     		str	r2, [r3]
 257:Generated_Source\PSoC4/UART_UART.c ****         UART_RX_FIFO_CTRL_REG = UART_UART_DEFAULT_RX_FIFO_CTRL;
  84              		.loc 1 257 0
  85 0018 1A4B     		ldr	r3, .L3+20
  86 001a 1B4A     		ldr	r2, .L3+24
  87 001c 1360     		str	r3, [r2]
 258:Generated_Source\PSoC4/UART_UART.c ****         UART_RX_MATCH_REG     = UART_UART_DEFAULT_RX_MATCH_REG;
  88              		.loc 1 258 0
  89 001e 1B4A     		ldr	r2, .L3+28
  90 0020 1160     		str	r1, [r2]
 259:Generated_Source\PSoC4/UART_UART.c **** 
  91              		.loc 1 259 0
  92 0022 1B4A     		ldr	r2, .L3+32
 262:Generated_Source\PSoC4/UART_UART.c ****         UART_TX_CTRL_REG      = UART_UART_DEFAULT_TX_CTRL;
  93              		.loc 1 262 0
  94 0024 0639     		subs	r1, r1, #6
 259:Generated_Source\PSoC4/UART_UART.c **** 
  95              		.loc 1 259 0
  96 0026 1460     		str	r4, [r2]
 262:Generated_Source\PSoC4/UART_UART.c ****         UART_TX_CTRL_REG      = UART_UART_DEFAULT_TX_CTRL;
  97              		.loc 1 262 0
  98 0028 1A4A     		ldr	r2, .L3+36
  99 002a 1160     		str	r1, [r2]
 263:Generated_Source\PSoC4/UART_UART.c ****         UART_TX_FIFO_CTRL_REG = UART_UART_DEFAULT_TX_FIFO_CTRL;
 100              		.loc 1 263 0
 101 002c 1A4A     		ldr	r2, .L3+40
 102 002e 1360     		str	r3, [r2]
 267:Generated_Source\PSoC4/UART_UART.c ****     #endif /* !(UART_CY_SCBIP_V0 || UART_CY_SCBIP_V1) */
 103              		.loc 1 267 0
 104 0030 0422     		movs	r2, #4
 264:Generated_Source\PSoC4/UART_UART.c **** 
 105              		.loc 1 264 0
ARM GAS  C:\Users\MARLOK~1\AppData\Local\Temp\cc3IUKCT.s 			page 19


 106 0032 1A4B     		ldr	r3, .L3+44
 107 0034 1C60     		str	r4, [r3]
 267:Generated_Source\PSoC4/UART_UART.c ****     #endif /* !(UART_CY_SCBIP_V0 || UART_CY_SCBIP_V1) */
 108              		.loc 1 267 0
 109 0036 1A4B     		ldr	r3, .L3+48
 110 0038 1A60     		str	r2, [r3]
 279:Generated_Source\PSoC4/UART_UART.c ****         CyIntSetPriority(UART_RX_WAKE_ISR_NUMBER, UART_RX_WAKE_ISR_PRIORITY);
 111              		.loc 1 279 0
 112 003a FFF7FEFF 		bl	CyIntDisable
 113              	.LVL1:
 280:Generated_Source\PSoC4/UART_UART.c ****         (void) CyIntSetVector(UART_RX_WAKE_ISR_NUMBER, &UART_UART_WAKEUP_ISR);
 114              		.loc 1 280 0
 115 003e 2100     		movs	r1, r4
 116 0040 2000     		movs	r0, r4
 117 0042 FFF7FEFF 		bl	CyIntSetPriority
 118              	.LVL2:
 281:Generated_Source\PSoC4/UART_UART.c ****     #endif /* (UART_UART_RX_WAKEUP_IRQ) */
 119              		.loc 1 281 0
 120 0046 1749     		ldr	r1, .L3+52
 121 0048 2000     		movs	r0, r4
 122 004a FFF7FEFF 		bl	CyIntSetVector
 123              	.LVL3:
 285:Generated_Source\PSoC4/UART_UART.c ****         UART_INTR_SPI_EC_MASK_REG = UART_UART_DEFAULT_INTR_SPI_EC_MASK;
 124              		.loc 1 285 0
 125 004e 164B     		ldr	r3, .L3+56
 126 0050 1C60     		str	r4, [r3]
 286:Generated_Source\PSoC4/UART_UART.c ****         UART_INTR_SLAVE_MASK_REG  = UART_UART_DEFAULT_INTR_SLAVE_MASK;
 127              		.loc 1 286 0
 128 0052 164B     		ldr	r3, .L3+60
 129 0054 1C60     		str	r4, [r3]
 287:Generated_Source\PSoC4/UART_UART.c ****         UART_INTR_MASTER_MASK_REG = UART_UART_DEFAULT_INTR_MASTER_MASK;
 130              		.loc 1 287 0
 131 0056 164B     		ldr	r3, .L3+64
 132 0058 1C60     		str	r4, [r3]
 288:Generated_Source\PSoC4/UART_UART.c ****         UART_INTR_RX_MASK_REG     = UART_UART_DEFAULT_INTR_RX_MASK;
 133              		.loc 1 288 0
 134 005a 164B     		ldr	r3, .L3+68
 135 005c 1C60     		str	r4, [r3]
 289:Generated_Source\PSoC4/UART_UART.c ****         UART_INTR_TX_MASK_REG     = UART_UART_DEFAULT_INTR_TX_MASK;
 136              		.loc 1 289 0
 137 005e 164B     		ldr	r3, .L3+72
 138 0060 1C60     		str	r4, [r3]
 290:Generated_Source\PSoC4/UART_UART.c **** 
 139              		.loc 1 290 0
 140 0062 164B     		ldr	r3, .L3+76
 141 0064 1C60     		str	r4, [r3]
 293:Generated_Source\PSoC4/UART_UART.c **** 
 142              		.loc 1 293 0
 143 0066 1A68     		ldr	r2, [r3]
 144 0068 154B     		ldr	r3, .L3+80
 145 006a 1A80     		strh	r2, [r3]
 305:Generated_Source\PSoC4/UART_UART.c **** #endif /* (UART_SCB_MODE_UNCONFIG_CONST_CFG) */
 146              		.loc 1 305 0
 147 006c 10BD     		pop	{r4, pc}
 148              	.L4:
 149 006e C046     		.align	2
 150              	.L3:
ARM GAS  C:\Users\MARLOK~1\AppData\Local\Temp\cc3IUKCT.s 			page 20


 151 0070 0F000002 		.word	33554447
 152 0074 00002640 		.word	1076232192
 153 0078 40002640 		.word	1076232256
 154 007c 01000A00 		.word	655361
 155 0080 48002640 		.word	1076232264
 156 0084 07000080 		.word	-2147483641
 157 0088 00032640 		.word	1076232960
 158 008c 04032640 		.word	1076232964
 159 0090 10032640 		.word	1076232976
 160 0094 44002640 		.word	1076232260
 161 0098 00022640 		.word	1076232704
 162 009c 04022640 		.word	1076232708
 163 00a0 50002640 		.word	1076232272
 164 00a4 00000000 		.word	UART_UART_WAKEUP_ISR
 165 00a8 880E2640 		.word	1076235912
 166 00ac C80E2640 		.word	1076235976
 167 00b0 480F2640 		.word	1076236104
 168 00b4 080F2640 		.word	1076236040
 169 00b8 C80F2640 		.word	1076236232
 170 00bc 880F2640 		.word	1076236168
 171 00c0 00000000 		.word	UART_IntrTxMask
 172              		.cfi_endproc
 173              	.LFE1:
 174              		.size	UART_UartInit, .-UART_UartInit
 175              		.section	.text.UART_UartPostEnable,"ax",%progbits
 176              		.align	1
 177              		.global	UART_UartPostEnable
 178              		.code	16
 179              		.thumb_func
 180              		.type	UART_UartPostEnable, %function
 181              	UART_UartPostEnable:
 182              	.LFB2:
 318:Generated_Source\PSoC4/UART_UART.c **** #if (UART_SCB_MODE_UNCONFIG_CONST_CFG)
 183              		.loc 1 318 0
 184              		.cfi_startproc
 185              		@ args = 0, pretend = 0, frame = 0
 186              		@ frame_needed = 0, uses_anonymous_args = 0
 187              		@ link register save eliminated.
 343:Generated_Source\PSoC4/UART_UART.c ****                                        UART_TX_HSIOM_POS, UART_TX_HSIOM_SEL_UART);
 188              		.loc 1 343 0
 189 0000 F021     		movs	r1, #240
 190 0002 054A     		ldr	r2, .L6
 356:Generated_Source\PSoC4/UART_UART.c **** 
 191              		.loc 1 356 0
 192              		@ sp needed
 343:Generated_Source\PSoC4/UART_UART.c ****                                        UART_TX_HSIOM_POS, UART_TX_HSIOM_SEL_UART);
 193              		.loc 1 343 0
 194 0004 1368     		ldr	r3, [r2]
 195 0006 8B43     		bics	r3, r1
 196 0008 6039     		subs	r1, r1, #96
 197 000a 0B43     		orrs	r3, r1
 198 000c 1360     		str	r3, [r2]
 355:Generated_Source\PSoC4/UART_UART.c **** }
 199              		.loc 1 355 0
 200 000e 034B     		ldr	r3, .L6+4
 201 0010 1A88     		ldrh	r2, [r3]
 202 0012 034B     		ldr	r3, .L6+8
ARM GAS  C:\Users\MARLOK~1\AppData\Local\Temp\cc3IUKCT.s 			page 21


 203 0014 1A60     		str	r2, [r3]
 356:Generated_Source\PSoC4/UART_UART.c **** 
 204              		.loc 1 356 0
 205 0016 7047     		bx	lr
 206              	.L7:
 207              		.align	2
 208              	.L6:
 209 0018 00050240 		.word	1073874176
 210 001c 00000000 		.word	UART_IntrTxMask
 211 0020 880F2640 		.word	1076236168
 212              		.cfi_endproc
 213              	.LFE2:
 214              		.size	UART_UartPostEnable, .-UART_UartPostEnable
 215              		.section	.text.UART_UartStop,"ax",%progbits
 216              		.align	1
 217              		.global	UART_UartStop
 218              		.code	16
 219              		.thumb_func
 220              		.type	UART_UartStop, %function
 221              	UART_UartStop:
 222              	.LFB3:
 370:Generated_Source\PSoC4/UART_UART.c **** #if(UART_SCB_MODE_UNCONFIG_CONST_CFG)
 223              		.loc 1 370 0
 224              		.cfi_startproc
 225              		@ args = 0, pretend = 0, frame = 0
 226              		@ frame_needed = 0, uses_anonymous_args = 0
 227              		@ link register save eliminated.
 398:Generated_Source\PSoC4/UART_UART.c ****                                        UART_TX_HSIOM_POS, UART_TX_HSIOM_SEL_GPIO);
 228              		.loc 1 398 0
 229 0000 F021     		movs	r1, #240
 230 0002 084A     		ldr	r2, .L9
 420:Generated_Source\PSoC4/UART_UART.c **** 
 231              		.loc 1 420 0
 232              		@ sp needed
 398:Generated_Source\PSoC4/UART_UART.c ****                                        UART_TX_HSIOM_POS, UART_TX_HSIOM_SEL_GPIO);
 233              		.loc 1 398 0
 234 0004 1368     		ldr	r3, [r2]
 235 0006 8B43     		bics	r3, r1
 236 0008 1360     		str	r3, [r2]
 415:Generated_Source\PSoC4/UART_UART.c **** #endif /* (UART_UART_WAKE_ENABLE_CONST) */
 237              		.loc 1 415 0
 238 000a 074A     		ldr	r2, .L9+4
 239 000c 074B     		ldr	r3, .L9+8
 240 000e 1168     		ldr	r1, [r2]
 241 0010 0B40     		ands	r3, r1
 242 0012 1360     		str	r3, [r2]
 419:Generated_Source\PSoC4/UART_UART.c **** }
 243              		.loc 1 419 0
 244 0014 064B     		ldr	r3, .L9+12
 245 0016 1A68     		ldr	r2, [r3]
 246 0018 E423     		movs	r3, #228
 247 001a DB00     		lsls	r3, r3, #3
 248 001c 1340     		ands	r3, r2
 249 001e 054A     		ldr	r2, .L9+16
 250 0020 1380     		strh	r3, [r2]
 420:Generated_Source\PSoC4/UART_UART.c **** 
 251              		.loc 1 420 0
ARM GAS  C:\Users\MARLOK~1\AppData\Local\Temp\cc3IUKCT.s 			page 22


 252 0022 7047     		bx	lr
 253              	.L10:
 254              		.align	2
 255              	.L9:
 256 0024 00050240 		.word	1073874176
 257 0028 48002640 		.word	1076232264
 258 002c FFDFFFFF 		.word	-8193
 259 0030 880F2640 		.word	1076236168
 260 0034 00000000 		.word	UART_IntrTxMask
 261              		.cfi_endproc
 262              	.LFE3:
 263              		.size	UART_UartStop, .-UART_UartStop
 264              		.section	.text.UART_UartSetRxAddress,"ax",%progbits
 265              		.align	1
 266              		.global	UART_UartSetRxAddress
 267              		.code	16
 268              		.thumb_func
 269              		.type	UART_UartSetRxAddress, %function
 270              	UART_UartSetRxAddress:
 271              	.LFB4:
 434:Generated_Source\PSoC4/UART_UART.c ****      uint32 matchReg;
 272              		.loc 1 434 0
 273              		.cfi_startproc
 274              		@ args = 0, pretend = 0, frame = 0
 275              		@ frame_needed = 0, uses_anonymous_args = 0
 276              		@ link register save eliminated.
 277              	.LVL4:
 439:Generated_Source\PSoC4/UART_UART.c ****     matchReg |= ((uint32)  (address & UART_RX_MATCH_ADDR_MASK)); /* Set address  */
 278              		.loc 1 439 0
 279 0000 FF22     		movs	r2, #255
 437:Generated_Source\PSoC4/UART_UART.c **** 
 280              		.loc 1 437 0
 281 0002 0349     		ldr	r1, .L12
 440:Generated_Source\PSoC4/UART_UART.c **** 
 282              		.loc 1 440 0
 283 0004 1040     		ands	r0, r2
 284              	.LVL5:
 437:Generated_Source\PSoC4/UART_UART.c **** 
 285              		.loc 1 437 0
 286 0006 0B68     		ldr	r3, [r1]
 287              	.LVL6:
 443:Generated_Source\PSoC4/UART_UART.c **** 
 288              		.loc 1 443 0
 289              		@ sp needed
 439:Generated_Source\PSoC4/UART_UART.c ****     matchReg |= ((uint32)  (address & UART_RX_MATCH_ADDR_MASK)); /* Set address  */
 290              		.loc 1 439 0
 291 0008 9343     		bics	r3, r2
 292              	.LVL7:
 440:Generated_Source\PSoC4/UART_UART.c **** 
 293              		.loc 1 440 0
 294 000a 1843     		orrs	r0, r3
 295              	.LVL8:
 442:Generated_Source\PSoC4/UART_UART.c **** }
 296              		.loc 1 442 0
 297 000c 0860     		str	r0, [r1]
 443:Generated_Source\PSoC4/UART_UART.c **** 
 298              		.loc 1 443 0
ARM GAS  C:\Users\MARLOK~1\AppData\Local\Temp\cc3IUKCT.s 			page 23


 299 000e 7047     		bx	lr
 300              	.L13:
 301              		.align	2
 302              	.L12:
 303 0010 10032640 		.word	1076232976
 304              		.cfi_endproc
 305              	.LFE4:
 306              		.size	UART_UartSetRxAddress, .-UART_UartSetRxAddress
 307              		.section	.text.UART_UartSetRxAddressMask,"ax",%progbits
 308              		.align	1
 309              		.global	UART_UartSetRxAddressMask
 310              		.code	16
 311              		.thumb_func
 312              		.type	UART_UartSetRxAddressMask, %function
 313              	UART_UartSetRxAddressMask:
 314              	.LFB5:
 459:Generated_Source\PSoC4/UART_UART.c ****     uint32 matchReg;
 315              		.loc 1 459 0
 316              		.cfi_startproc
 317              		@ args = 0, pretend = 0, frame = 0
 318              		@ frame_needed = 0, uses_anonymous_args = 0
 319              		@ link register save eliminated.
 320              	.LVL9:
 462:Generated_Source\PSoC4/UART_UART.c **** 
 321              		.loc 1 462 0
 322 0000 034A     		ldr	r2, .L15
 464:Generated_Source\PSoC4/UART_UART.c ****     matchReg |= ((uint32) (addressMask << UART_RX_MATCH_MASK_POS));
 323              		.loc 1 464 0
 324 0002 044B     		ldr	r3, .L15+4
 462:Generated_Source\PSoC4/UART_UART.c **** 
 325              		.loc 1 462 0
 326 0004 1168     		ldr	r1, [r2]
 327              	.LVL10:
 465:Generated_Source\PSoC4/UART_UART.c **** 
 328              		.loc 1 465 0
 329 0006 0004     		lsls	r0, r0, #16
 330              	.LVL11:
 464:Generated_Source\PSoC4/UART_UART.c ****     matchReg |= ((uint32) (addressMask << UART_RX_MATCH_MASK_POS));
 331              		.loc 1 464 0
 332 0008 0B40     		ands	r3, r1
 333              	.LVL12:
 465:Generated_Source\PSoC4/UART_UART.c **** 
 334              		.loc 1 465 0
 335 000a 1843     		orrs	r0, r3
 336              	.LVL13:
 467:Generated_Source\PSoC4/UART_UART.c **** }
 337              		.loc 1 467 0
 338 000c 1060     		str	r0, [r2]
 468:Generated_Source\PSoC4/UART_UART.c **** 
 339              		.loc 1 468 0
 340              		@ sp needed
 341 000e 7047     		bx	lr
 342              	.L16:
 343              		.align	2
 344              	.L15:
 345 0010 10032640 		.word	1076232976
 346 0014 FFFF00FF 		.word	-16711681
ARM GAS  C:\Users\MARLOK~1\AppData\Local\Temp\cc3IUKCT.s 			page 24


 347              		.cfi_endproc
 348              	.LFE5:
 349              		.size	UART_UartSetRxAddressMask, .-UART_UartSetRxAddressMask
 350              		.section	.text.UART_UartGetChar,"ax",%progbits
 351              		.align	1
 352              		.global	UART_UartGetChar
 353              		.code	16
 354              		.thumb_func
 355              		.type	UART_UartGetChar, %function
 356              	UART_UartGetChar:
 357              	.LFB6:
 499:Generated_Source\PSoC4/UART_UART.c ****         uint32 rxData = 0u;
 358              		.loc 1 499 0
 359              		.cfi_startproc
 360              		@ args = 0, pretend = 0, frame = 0
 361              		@ frame_needed = 0, uses_anonymous_args = 0
 362              	.LVL14:
 363 0000 10B5     		push	{r4, lr}
 364              		.cfi_def_cfa_offset 8
 365              		.cfi_offset 4, -8
 366              		.cfi_offset 14, -4
 503:Generated_Source\PSoC4/UART_UART.c ****         {
 367              		.loc 1 503 0
 368 0002 FFF7FEFF 		bl	UART_SpiUartGetRxBufferSize
 369              	.LVL15:
 370 0006 0300     		movs	r3, r0
 500:Generated_Source\PSoC4/UART_UART.c **** 
 371              		.loc 1 500 0
 372 0008 0020     		movs	r0, #0
 503:Generated_Source\PSoC4/UART_UART.c ****         {
 373              		.loc 1 503 0
 374 000a 8342     		cmp	r3, r0
 375 000c 01D0     		beq	.L18
 505:Generated_Source\PSoC4/UART_UART.c ****         }
 376              		.loc 1 505 0
 377 000e FFF7FEFF 		bl	UART_SpiUartReadRxData
 378              	.LVL16:
 379              	.L18:
 508:Generated_Source\PSoC4/UART_UART.c ****         {
 380              		.loc 1 508 0
 381 0012 D822     		movs	r2, #216
 382 0014 034B     		ldr	r3, .L26
 383 0016 9200     		lsls	r2, r2, #2
 384 0018 1968     		ldr	r1, [r3]
 385 001a 1142     		tst	r1, r2
 386 001c 01D0     		beq	.L19
 387              	.LVL17:
 510:Generated_Source\PSoC4/UART_UART.c ****             UART_ClearRxInterruptSource(UART_INTR_RX_ERR);
 388              		.loc 1 510 0
 389 001e 0020     		movs	r0, #0
 511:Generated_Source\PSoC4/UART_UART.c ****         }
 390              		.loc 1 511 0
 391 0020 1A60     		str	r2, [r3]
 392              	.LVL18:
 393              	.L19:
 515:Generated_Source\PSoC4/UART_UART.c **** 
 394              		.loc 1 515 0
ARM GAS  C:\Users\MARLOK~1\AppData\Local\Temp\cc3IUKCT.s 			page 25


 395              		@ sp needed
 396 0022 10BD     		pop	{r4, pc}
 397              	.L27:
 398              		.align	2
 399              	.L26:
 400 0024 C00F2640 		.word	1076236224
 401              		.cfi_endproc
 402              	.LFE6:
 403              		.size	UART_UartGetChar, .-UART_UartGetChar
 404              		.section	.text.UART_UartGetByte,"ax",%progbits
 405              		.align	1
 406              		.global	UART_UartGetByte
 407              		.code	16
 408              		.thumb_func
 409              		.type	UART_UartGetByte, %function
 410              	UART_UartGetByte:
 411              	.LFB7:
 549:Generated_Source\PSoC4/UART_UART.c ****         uint32 rxData;
 412              		.loc 1 549 0
 413              		.cfi_startproc
 414              		@ args = 0, pretend = 0, frame = 0
 415              		@ frame_needed = 0, uses_anonymous_args = 0
 416 0000 10B5     		push	{r4, lr}
 417              		.cfi_def_cfa_offset 8
 418              		.cfi_offset 4, -8
 419              		.cfi_offset 14, -4
 559:Generated_Source\PSoC4/UART_UART.c ****         {
 420              		.loc 1 559 0
 421 0002 FFF7FEFF 		bl	UART_SpiUartGetRxBufferSize
 422              	.LVL19:
 423 0006 0028     		cmp	r0, #0
 424 0008 02D0     		beq	.L29
 571:Generated_Source\PSoC4/UART_UART.c ****         }
 425              		.loc 1 571 0
 426 000a FFF7FEFF 		bl	UART_SpiUartReadRxData
 427              	.LVL20:
 428 000e 01E0     		b	.L30
 429              	.LVL21:
 430              	.L29:
 578:Generated_Source\PSoC4/UART_UART.c **** 
 431              		.loc 1 578 0
 432 0010 064B     		ldr	r3, .L31
 433 0012 1868     		ldr	r0, [r3]
 434              	.LVL22:
 435              	.L30:
 597:Generated_Source\PSoC4/UART_UART.c **** 
 436              		.loc 1 597 0
 437 0014 D821     		movs	r1, #216
 596:Generated_Source\PSoC4/UART_UART.c ****         UART_ClearRxInterruptSource(UART_INTR_RX_ERR);
 438              		.loc 1 596 0
 439 0016 064A     		ldr	r2, .L31+4
 597:Generated_Source\PSoC4/UART_UART.c **** 
 440              		.loc 1 597 0
 441 0018 8900     		lsls	r1, r1, #2
 596:Generated_Source\PSoC4/UART_UART.c ****         UART_ClearRxInterruptSource(UART_INTR_RX_ERR);
 442              		.loc 1 596 0
 443 001a 1368     		ldr	r3, [r2]
ARM GAS  C:\Users\MARLOK~1\AppData\Local\Temp\cc3IUKCT.s 			page 26


 444              	.LVL23:
 597:Generated_Source\PSoC4/UART_UART.c **** 
 445              		.loc 1 597 0
 446 001c 1160     		str	r1, [r2]
 447              	.LVL24:
 604:Generated_Source\PSoC4/UART_UART.c ****     }
 448              		.loc 1 604 0
 449 001e D822     		movs	r2, #216
 450 0020 1B02     		lsls	r3, r3, #8
 451              	.LVL25:
 452 0022 9202     		lsls	r2, r2, #10
 453 0024 1340     		ands	r3, r2
 454 0026 1843     		orrs	r0, r3
 605:Generated_Source\PSoC4/UART_UART.c **** 
 455              		.loc 1 605 0
 456              		@ sp needed
 457 0028 10BD     		pop	{r4, pc}
 458              	.L32:
 459 002a C046     		.align	2
 460              	.L31:
 461 002c 40032640 		.word	1076233024
 462 0030 C00F2640 		.word	1076236224
 463              		.cfi_endproc
 464              	.LFE7:
 465              		.size	UART_UartGetByte, .-UART_UartGetByte
 466              		.section	.text.UART_UartSetRtsPolarity,"ax",%progbits
 467              		.align	1
 468              		.global	UART_UartSetRtsPolarity
 469              		.code	16
 470              		.thumb_func
 471              		.type	UART_UartSetRtsPolarity, %function
 472              	UART_UartSetRtsPolarity:
 473              	.LFB8:
 623:Generated_Source\PSoC4/UART_UART.c ****             if(0u != polarity)
 474              		.loc 1 623 0
 475              		.cfi_startproc
 476              		@ args = 0, pretend = 0, frame = 0
 477              		@ frame_needed = 0, uses_anonymous_args = 0
 478              		@ link register save eliminated.
 479              	.LVL26:
 480 0000 064B     		ldr	r3, .L37
 624:Generated_Source\PSoC4/UART_UART.c ****             {
 481              		.loc 1 624 0
 482 0002 0028     		cmp	r0, #0
 483 0004 04D0     		beq	.L34
 626:Generated_Source\PSoC4/UART_UART.c ****             }
 484              		.loc 1 626 0
 485 0006 8021     		movs	r1, #128
 486 0008 1A68     		ldr	r2, [r3]
 487 000a 4902     		lsls	r1, r1, #9
 488 000c 0A43     		orrs	r2, r1
 489 000e 02E0     		b	.L36
 490              	.L34:
 630:Generated_Source\PSoC4/UART_UART.c ****             }
 491              		.loc 1 630 0
 492 0010 1968     		ldr	r1, [r3]
 493 0012 034A     		ldr	r2, .L37+4
ARM GAS  C:\Users\MARLOK~1\AppData\Local\Temp\cc3IUKCT.s 			page 27


 494 0014 0A40     		ands	r2, r1
 495              	.L36:
 496 0016 1A60     		str	r2, [r3]
 632:Generated_Source\PSoC4/UART_UART.c **** 
 497              		.loc 1 632 0
 498              		@ sp needed
 499 0018 7047     		bx	lr
 500              	.L38:
 501 001a C046     		.align	2
 502              	.L37:
 503 001c 50002640 		.word	1076232272
 504 0020 FFFFFEFF 		.word	-65537
 505              		.cfi_endproc
 506              	.LFE8:
 507              		.size	UART_UartSetRtsPolarity, .-UART_UartSetRtsPolarity
 508              		.section	.text.UART_UartSetRtsFifoLevel,"ax",%progbits
 509              		.align	1
 510              		.global	UART_UartSetRtsFifoLevel
 511              		.code	16
 512              		.thumb_func
 513              		.type	UART_UartSetRtsFifoLevel, %function
 514              	UART_UartSetRtsFifoLevel:
 515              	.LFB9:
 651:Generated_Source\PSoC4/UART_UART.c ****             uint32 uartFlowCtrl;
 516              		.loc 1 651 0
 517              		.cfi_startproc
 518              		@ args = 0, pretend = 0, frame = 0
 519              		@ frame_needed = 0, uses_anonymous_args = 0
 520              		@ link register save eliminated.
 521              	.LVL27:
 656:Generated_Source\PSoC4/UART_UART.c ****             uartFlowCtrl |= ((uint32) (UART_UART_FLOW_CTRL_TRIGGER_LEVEL_MASK & level));
 522              		.loc 1 656 0
 523 0000 0F22     		movs	r2, #15
 654:Generated_Source\PSoC4/UART_UART.c **** 
 524              		.loc 1 654 0
 525 0002 0349     		ldr	r1, .L40
 657:Generated_Source\PSoC4/UART_UART.c **** 
 526              		.loc 1 657 0
 527 0004 1040     		ands	r0, r2
 528              	.LVL28:
 654:Generated_Source\PSoC4/UART_UART.c **** 
 529              		.loc 1 654 0
 530 0006 0B68     		ldr	r3, [r1]
 531              	.LVL29:
 660:Generated_Source\PSoC4/UART_UART.c ****     #endif /* !(UART_CY_SCBIP_V0 || UART_CY_SCBIP_V1) */
 532              		.loc 1 660 0
 533              		@ sp needed
 656:Generated_Source\PSoC4/UART_UART.c ****             uartFlowCtrl |= ((uint32) (UART_UART_FLOW_CTRL_TRIGGER_LEVEL_MASK & level));
 534              		.loc 1 656 0
 535 0008 9343     		bics	r3, r2
 536              	.LVL30:
 657:Generated_Source\PSoC4/UART_UART.c **** 
 537              		.loc 1 657 0
 538 000a 1843     		orrs	r0, r3
 539              	.LVL31:
 659:Generated_Source\PSoC4/UART_UART.c ****         }
 540              		.loc 1 659 0
ARM GAS  C:\Users\MARLOK~1\AppData\Local\Temp\cc3IUKCT.s 			page 28


 541 000c 0860     		str	r0, [r1]
 660:Generated_Source\PSoC4/UART_UART.c ****     #endif /* !(UART_CY_SCBIP_V0 || UART_CY_SCBIP_V1) */
 542              		.loc 1 660 0
 543 000e 7047     		bx	lr
 544              	.L41:
 545              		.align	2
 546              	.L40:
 547 0010 50002640 		.word	1076232272
 548              		.cfi_endproc
 549              	.LFE9:
 550              		.size	UART_UartSetRtsFifoLevel, .-UART_UartSetRtsFifoLevel
 551              		.section	.text.UART_UartPutString,"ax",%progbits
 552              		.align	1
 553              		.global	UART_UartPutString
 554              		.code	16
 555              		.thumb_func
 556              		.type	UART_UartPutString, %function
 557              	UART_UartPutString:
 558              	.LFB10:
 681:Generated_Source\PSoC4/UART_UART.c ****         uint32 bufIndex;
 559              		.loc 1 681 0
 560              		.cfi_startproc
 561              		@ args = 0, pretend = 0, frame = 0
 562              		@ frame_needed = 0, uses_anonymous_args = 0
 563              	.LVL32:
 564 0000 10B5     		push	{r4, lr}
 565              		.cfi_def_cfa_offset 8
 566              		.cfi_offset 4, -8
 567              		.cfi_offset 14, -4
 568 0002 0400     		movs	r4, r0
 569              	.LVL33:
 570              	.L43:
 571 0004 0134     		adds	r4, r4, #1
 572              	.LVL34:
 687:Generated_Source\PSoC4/UART_UART.c ****         {
 573              		.loc 1 687 0
 574 0006 631E     		subs	r3, r4, #1
 575 0008 1878     		ldrb	r0, [r3]
 576 000a 0028     		cmp	r0, #0
 577 000c 02D0     		beq	.L45
 689:Generated_Source\PSoC4/UART_UART.c ****             bufIndex++;
 578              		.loc 1 689 0
 579 000e FFF7FEFF 		bl	UART_SpiUartWriteTxData
 580              	.LVL35:
 581 0012 F7E7     		b	.L43
 582              	.LVL36:
 583              	.L45:
 692:Generated_Source\PSoC4/UART_UART.c **** 
 584              		.loc 1 692 0
 585              		@ sp needed
 586              	.LVL37:
 587 0014 10BD     		pop	{r4, pc}
 588              		.cfi_endproc
 589              	.LFE10:
 590              		.size	UART_UartPutString, .-UART_UartPutString
 591              		.section	.text.UART_UartPutCRLF,"ax",%progbits
 592              		.align	1
ARM GAS  C:\Users\MARLOK~1\AppData\Local\Temp\cc3IUKCT.s 			page 29


 593              		.global	UART_UartPutCRLF
 594              		.code	16
 595              		.thumb_func
 596              		.type	UART_UartPutCRLF, %function
 597              	UART_UartPutCRLF:
 598              	.LFB11:
 708:Generated_Source\PSoC4/UART_UART.c ****         UART_UartPutChar(txDataByte);  /* Blocks control flow until all data has been sent */
 599              		.loc 1 708 0
 600              		.cfi_startproc
 601              		@ args = 0, pretend = 0, frame = 0
 602              		@ frame_needed = 0, uses_anonymous_args = 0
 603              	.LVL38:
 604 0000 10B5     		push	{r4, lr}
 605              		.cfi_def_cfa_offset 8
 606              		.cfi_offset 4, -8
 607              		.cfi_offset 14, -4
 709:Generated_Source\PSoC4/UART_UART.c ****         UART_UartPutChar(0x0Du);       /* Blocks control flow until all data has been sent */
 608              		.loc 1 709 0
 609 0002 FFF7FEFF 		bl	UART_SpiUartWriteTxData
 610              	.LVL39:
 710:Generated_Source\PSoC4/UART_UART.c ****         UART_UartPutChar(0x0Au);       /* Blocks control flow until all data has been sent */
 611              		.loc 1 710 0
 612 0006 0D20     		movs	r0, #13
 613 0008 FFF7FEFF 		bl	UART_SpiUartWriteTxData
 614              	.LVL40:
 711:Generated_Source\PSoC4/UART_UART.c ****     }
 615              		.loc 1 711 0
 616 000c 0A20     		movs	r0, #10
 617 000e FFF7FEFF 		bl	UART_SpiUartWriteTxData
 618              	.LVL41:
 712:Generated_Source\PSoC4/UART_UART.c **** 
 619              		.loc 1 712 0
 620              		@ sp needed
 621 0012 10BD     		pop	{r4, pc}
 622              		.cfi_endproc
 623              	.LFE11:
 624              		.size	UART_UartPutCRLF, .-UART_UartPutCRLF
 625              		.section	.text.UART_UartEnableCts,"ax",%progbits
 626              		.align	1
 627              		.global	UART_UartEnableCts
 628              		.code	16
 629              		.thumb_func
 630              		.type	UART_UartEnableCts, %function
 631              	UART_UartEnableCts:
 632              	.LFB12:
 726:Generated_Source\PSoC4/UART_UART.c ****             UART_UART_FLOW_CTRL_REG |= (uint32)  UART_UART_FLOW_CTRL_CTS_ENABLE;
 633              		.loc 1 726 0
 634              		.cfi_startproc
 635              		@ args = 0, pretend = 0, frame = 0
 636              		@ frame_needed = 0, uses_anonymous_args = 0
 637              		@ link register save eliminated.
 727:Generated_Source\PSoC4/UART_UART.c ****         }
 638              		.loc 1 727 0
 639 0000 8021     		movs	r1, #128
 640 0002 034A     		ldr	r2, .L48
 641 0004 8904     		lsls	r1, r1, #18
 642 0006 1368     		ldr	r3, [r2]
ARM GAS  C:\Users\MARLOK~1\AppData\Local\Temp\cc3IUKCT.s 			page 30


 728:Generated_Source\PSoC4/UART_UART.c **** 
 643              		.loc 1 728 0
 644              		@ sp needed
 727:Generated_Source\PSoC4/UART_UART.c ****         }
 645              		.loc 1 727 0
 646 0008 0B43     		orrs	r3, r1
 647 000a 1360     		str	r3, [r2]
 728:Generated_Source\PSoC4/UART_UART.c **** 
 648              		.loc 1 728 0
 649 000c 7047     		bx	lr
 650              	.L49:
 651 000e C046     		.align	2
 652              	.L48:
 653 0010 50002640 		.word	1076232272
 654              		.cfi_endproc
 655              	.LFE12:
 656              		.size	UART_UartEnableCts, .-UART_UartEnableCts
 657              		.section	.text.UART_UartDisableCts,"ax",%progbits
 658              		.align	1
 659              		.global	UART_UartDisableCts
 660              		.code	16
 661              		.thumb_func
 662              		.type	UART_UartDisableCts, %function
 663              	UART_UartDisableCts:
 664              	.LFB13:
 741:Generated_Source\PSoC4/UART_UART.c ****             UART_UART_FLOW_CTRL_REG &= (uint32) ~UART_UART_FLOW_CTRL_CTS_ENABLE;
 665              		.loc 1 741 0
 666              		.cfi_startproc
 667              		@ args = 0, pretend = 0, frame = 0
 668              		@ frame_needed = 0, uses_anonymous_args = 0
 669              		@ link register save eliminated.
 742:Generated_Source\PSoC4/UART_UART.c ****         }
 670              		.loc 1 742 0
 671 0000 024A     		ldr	r2, .L51
 672 0002 034B     		ldr	r3, .L51+4
 673 0004 1168     		ldr	r1, [r2]
 743:Generated_Source\PSoC4/UART_UART.c **** 
 674              		.loc 1 743 0
 675              		@ sp needed
 742:Generated_Source\PSoC4/UART_UART.c ****         }
 676              		.loc 1 742 0
 677 0006 0B40     		ands	r3, r1
 678 0008 1360     		str	r3, [r2]
 743:Generated_Source\PSoC4/UART_UART.c **** 
 679              		.loc 1 743 0
 680 000a 7047     		bx	lr
 681              	.L52:
 682              		.align	2
 683              	.L51:
 684 000c 50002640 		.word	1076232272
 685 0010 FFFFFFFD 		.word	-33554433
 686              		.cfi_endproc
 687              	.LFE13:
 688              		.size	UART_UartDisableCts, .-UART_UartDisableCts
 689              		.section	.text.UART_UartSetCtsPolarity,"ax",%progbits
 690              		.align	1
 691              		.global	UART_UartSetCtsPolarity
ARM GAS  C:\Users\MARLOK~1\AppData\Local\Temp\cc3IUKCT.s 			page 31


 692              		.code	16
 693              		.thumb_func
 694              		.type	UART_UartSetCtsPolarity, %function
 695              	UART_UartSetCtsPolarity:
 696              	.LFB14:
 761:Generated_Source\PSoC4/UART_UART.c ****             if (0u != polarity)
 697              		.loc 1 761 0
 698              		.cfi_startproc
 699              		@ args = 0, pretend = 0, frame = 0
 700              		@ frame_needed = 0, uses_anonymous_args = 0
 701              		@ link register save eliminated.
 702              	.LVL42:
 703 0000 064B     		ldr	r3, .L57
 762:Generated_Source\PSoC4/UART_UART.c ****             {
 704              		.loc 1 762 0
 705 0002 0028     		cmp	r0, #0
 706 0004 04D0     		beq	.L54
 764:Generated_Source\PSoC4/UART_UART.c ****             }
 707              		.loc 1 764 0
 708 0006 8021     		movs	r1, #128
 709 0008 1A68     		ldr	r2, [r3]
 710 000a 4904     		lsls	r1, r1, #17
 711 000c 0A43     		orrs	r2, r1
 712 000e 02E0     		b	.L56
 713              	.L54:
 768:Generated_Source\PSoC4/UART_UART.c ****             }
 714              		.loc 1 768 0
 715 0010 1968     		ldr	r1, [r3]
 716 0012 034A     		ldr	r2, .L57+4
 717 0014 0A40     		ands	r2, r1
 718              	.L56:
 719 0016 1A60     		str	r2, [r3]
 770:Generated_Source\PSoC4/UART_UART.c ****     #endif /* !(UART_CY_SCBIP_V0 || UART_CY_SCBIP_V1) */
 720              		.loc 1 770 0
 721              		@ sp needed
 722 0018 7047     		bx	lr
 723              	.L58:
 724 001a C046     		.align	2
 725              	.L57:
 726 001c 50002640 		.word	1076232272
 727 0020 FFFFFFFE 		.word	-16777217
 728              		.cfi_endproc
 729              	.LFE14:
 730              		.size	UART_UartSetCtsPolarity, .-UART_UartSetCtsPolarity
 731              		.section	.text.UART_UartSendBreakBlocking,"ax",%progbits
 732              		.align	1
 733              		.global	UART_UartSendBreakBlocking
 734              		.code	16
 735              		.thumb_func
 736              		.type	UART_UartSendBreakBlocking, %function
 737              	UART_UartSendBreakBlocking:
 738              	.LFB15:
 795:Generated_Source\PSoC4/UART_UART.c ****         uint32 txCtrlReg;
 739              		.loc 1 795 0
 740              		.cfi_startproc
 741              		@ args = 0, pretend = 0, frame = 8
 742              		@ frame_needed = 0, uses_anonymous_args = 0
ARM GAS  C:\Users\MARLOK~1\AppData\Local\Temp\cc3IUKCT.s 			page 32


 743              	.LVL43:
 744 0000 F7B5     		push	{r0, r1, r2, r4, r5, r6, r7, lr}
 745              		.cfi_def_cfa_offset 32
 746              		.cfi_offset 0, -32
 747              		.cfi_offset 1, -28
 748              		.cfi_offset 2, -24
 749              		.cfi_offset 4, -20
 750              		.cfi_offset 5, -16
 751              		.cfi_offset 6, -12
 752              		.cfi_offset 7, -8
 753              		.cfi_offset 14, -4
 802:Generated_Source\PSoC4/UART_UART.c **** 
 754              		.loc 1 802 0
 755 0002 8024     		movs	r4, #128
 801:Generated_Source\PSoC4/UART_UART.c ****         UART_ClearTxInterruptSource(UART_INTR_TX_UART_DONE);
 756              		.loc 1 801 0
 757 0004 0026     		movs	r6, #0
 808:Generated_Source\PSoC4/UART_UART.c ****                                         UART_GET_TX_CTRL_DATA_WIDTH(breakWidth);
 758              		.loc 1 808 0
 759 0006 0F27     		movs	r7, #15
 800:Generated_Source\PSoC4/UART_UART.c ****         UART_SetTxInterruptMode(0u);
 760              		.loc 1 800 0
 761 0008 0E4A     		ldr	r2, .L63
 802:Generated_Source\PSoC4/UART_UART.c **** 
 762              		.loc 1 802 0
 763 000a 0F4D     		ldr	r5, .L63+4
 800:Generated_Source\PSoC4/UART_UART.c ****         UART_SetTxInterruptMode(0u);
 764              		.loc 1 800 0
 765 000c 1368     		ldr	r3, [r2]
 802:Generated_Source\PSoC4/UART_UART.c **** 
 766              		.loc 1 802 0
 767 000e A400     		lsls	r4, r4, #2
 800:Generated_Source\PSoC4/UART_UART.c ****         UART_SetTxInterruptMode(0u);
 768              		.loc 1 800 0
 769 0010 0193     		str	r3, [sp, #4]
 770              	.LVL44:
 805:Generated_Source\PSoC4/UART_UART.c **** 
 771              		.loc 1 805 0
 772 0012 0E4B     		ldr	r3, .L63+8
 773              	.LVL45:
 801:Generated_Source\PSoC4/UART_UART.c ****         UART_ClearTxInterruptSource(UART_INTR_TX_UART_DONE);
 774              		.loc 1 801 0
 775 0014 1660     		str	r6, [r2]
 802:Generated_Source\PSoC4/UART_UART.c **** 
 776              		.loc 1 802 0
 777 0016 2C60     		str	r4, [r5]
 805:Generated_Source\PSoC4/UART_UART.c **** 
 778              		.loc 1 805 0
 779 0018 1968     		ldr	r1, [r3]
 808:Generated_Source\PSoC4/UART_UART.c ****                                         UART_GET_TX_CTRL_DATA_WIDTH(breakWidth);
 780              		.loc 1 808 0
 781 001a 0138     		subs	r0, r0, #1
 782              	.LVL46:
 805:Generated_Source\PSoC4/UART_UART.c **** 
 783              		.loc 1 805 0
 784 001c 8C46     		mov	ip, r1
 785              	.LVL47:
ARM GAS  C:\Users\MARLOK~1\AppData\Local\Temp\cc3IUKCT.s 			page 33


 808:Generated_Source\PSoC4/UART_UART.c ****                                         UART_GET_TX_CTRL_DATA_WIDTH(breakWidth);
 786              		.loc 1 808 0
 787 001e 1968     		ldr	r1, [r3]
 788              	.LVL48:
 789 0020 3840     		ands	r0, r7
 790              	.LVL49:
 791 0022 B943     		bics	r1, r7
 792 0024 0843     		orrs	r0, r1
 812:Generated_Source\PSoC4/UART_UART.c **** 
 793              		.loc 1 812 0
 794 0026 0A49     		ldr	r1, .L63+12
 808:Generated_Source\PSoC4/UART_UART.c ****                                         UART_GET_TX_CTRL_DATA_WIDTH(breakWidth);
 795              		.loc 1 808 0
 796 0028 1860     		str	r0, [r3]
 812:Generated_Source\PSoC4/UART_UART.c **** 
 797              		.loc 1 812 0
 798 002a 0E60     		str	r6, [r1]
 799              	.L60:
 815:Generated_Source\PSoC4/UART_UART.c ****         {
 800              		.loc 1 815 0 discriminator 1
 801 002c 2968     		ldr	r1, [r5]
 802 002e 2142     		tst	r1, r4
 803 0030 FCD0     		beq	.L60
 820:Generated_Source\PSoC4/UART_UART.c **** 
 804              		.loc 1 820 0
 805 0032 0848     		ldr	r0, .L63+16
 806 0034 0449     		ldr	r1, .L63+4
 825:Generated_Source\PSoC4/UART_UART.c **** #endif /* (UART_UART_TX_DIRECTION) */
 807              		.loc 1 825 0
 808              		@ sp needed
 820:Generated_Source\PSoC4/UART_UART.c **** 
 809              		.loc 1 820 0
 810 0036 0860     		str	r0, [r1]
 823:Generated_Source\PSoC4/UART_UART.c ****         UART_SetTxInterruptMode(txIntrReg);
 811              		.loc 1 823 0
 812 0038 6146     		mov	r1, ip
 813 003a 1960     		str	r1, [r3]
 824:Generated_Source\PSoC4/UART_UART.c ****     }
 814              		.loc 1 824 0
 815 003c 019B     		ldr	r3, [sp, #4]
 816 003e 1360     		str	r3, [r2]
 825:Generated_Source\PSoC4/UART_UART.c **** #endif /* (UART_UART_TX_DIRECTION) */
 817              		.loc 1 825 0
 818 0040 F7BD     		pop	{r0, r1, r2, r4, r5, r6, r7, pc}
 819              	.L64:
 820 0042 C046     		.align	2
 821              	.L63:
 822 0044 880F2640 		.word	1076236168
 823 0048 800F2640 		.word	1076236160
 824 004c 00022640 		.word	1076232704
 825 0050 40022640 		.word	1076232768
 826 0054 F3070000 		.word	2035
 827              		.cfi_endproc
 828              	.LFE15:
 829              		.size	UART_UartSendBreakBlocking, .-UART_UartSendBreakBlocking
 830              		.section	.text.UART_UartSaveConfig,"ax",%progbits
 831              		.align	1
ARM GAS  C:\Users\MARLOK~1\AppData\Local\Temp\cc3IUKCT.s 			page 34


 832              		.global	UART_UartSaveConfig
 833              		.code	16
 834              		.thumb_func
 835              		.type	UART_UartSaveConfig, %function
 836              	UART_UartSaveConfig:
 837              	.LFB16:
 840:Generated_Source\PSoC4/UART_UART.c ****     #if (UART_UART_RX_WAKEUP_IRQ)
 838              		.loc 1 840 0
 839              		.cfi_startproc
 840              		@ args = 0, pretend = 0, frame = 0
 841              		@ frame_needed = 0, uses_anonymous_args = 0
 842 0000 10B5     		push	{r4, lr}
 843              		.cfi_def_cfa_offset 8
 844              		.cfi_offset 4, -8
 845              		.cfi_offset 14, -4
 843:Generated_Source\PSoC4/UART_UART.c ****         {
 846              		.loc 1 843 0
 847 0002 0B4B     		ldr	r3, .L69
 848 0004 1A78     		ldrb	r2, [r3]
 849 0006 0B4B     		ldr	r3, .L69+4
 850 0008 002A     		cmp	r2, #0
 851 000a 04D0     		beq	.L66
 845:Generated_Source\PSoC4/UART_UART.c ****         }
 852              		.loc 1 845 0
 853 000c 8021     		movs	r1, #128
 854 000e 1A68     		ldr	r2, [r3]
 855 0010 8901     		lsls	r1, r1, #6
 856 0012 0A43     		orrs	r2, r1
 857 0014 02E0     		b	.L68
 858              	.L66:
 849:Generated_Source\PSoC4/UART_UART.c ****         }
 859              		.loc 1 849 0
 860 0016 1968     		ldr	r1, [r3]
 861 0018 074A     		ldr	r2, .L69+8
 862 001a 0A40     		ands	r2, r1
 863              	.L68:
 864 001c 1A60     		str	r2, [r3]
 856:Generated_Source\PSoC4/UART_UART.c ****         UART_RxWakeClearPendingInt();
 865              		.loc 1 856 0
 866 001e FFF7FEFF 		bl	UART_rx_wake_ClearInterrupt
 867              	.LVL50:
 857:Generated_Source\PSoC4/UART_UART.c ****         UART_RxWakeEnableInt();
 868              		.loc 1 857 0
 869 0022 0020     		movs	r0, #0
 870 0024 FFF7FEFF 		bl	CyIntClearPending
 871              	.LVL51:
 858:Generated_Source\PSoC4/UART_UART.c ****     #endif /* (UART_UART_RX_WAKEUP_IRQ) */
 872              		.loc 1 858 0
 873 0028 0020     		movs	r0, #0
 874 002a FFF7FEFF 		bl	CyIntEnable
 875              	.LVL52:
 860:Generated_Source\PSoC4/UART_UART.c **** 
 876              		.loc 1 860 0
 877              		@ sp needed
 878 002e 10BD     		pop	{r4, pc}
 879              	.L70:
 880              		.align	2
ARM GAS  C:\Users\MARLOK~1\AppData\Local\Temp\cc3IUKCT.s 			page 35


 881              	.L69:
 882 0030 00000000 		.word	.LANCHOR0
 883 0034 48002640 		.word	1076232264
 884 0038 FFDFFFFF 		.word	-8193
 885              		.cfi_endproc
 886              	.LFE16:
 887              		.size	UART_UartSaveConfig, .-UART_UartSaveConfig
 888              		.section	.text.UART_UartRestoreConfig,"ax",%progbits
 889              		.align	1
 890              		.global	UART_UartRestoreConfig
 891              		.code	16
 892              		.thumb_func
 893              		.type	UART_UartRestoreConfig, %function
 894              	UART_UartRestoreConfig:
 895              	.LFB17:
 872:Generated_Source\PSoC4/UART_UART.c ****     #if (UART_UART_RX_WAKEUP_IRQ)
 896              		.loc 1 872 0
 897              		.cfi_startproc
 898              		@ args = 0, pretend = 0, frame = 0
 899              		@ frame_needed = 0, uses_anonymous_args = 0
 900 0000 10B5     		push	{r4, lr}
 901              		.cfi_def_cfa_offset 8
 902              		.cfi_offset 4, -8
 903              		.cfi_offset 14, -4
 875:Generated_Source\PSoC4/UART_UART.c ****     #endif /* (UART_UART_RX_WAKEUP_IRQ) */
 904              		.loc 1 875 0
 905 0002 0020     		movs	r0, #0
 906 0004 FFF7FEFF 		bl	CyIntDisable
 907              	.LVL53:
 877:Generated_Source\PSoC4/UART_UART.c **** 
 908              		.loc 1 877 0
 909              		@ sp needed
 910 0008 10BD     		pop	{r4, pc}
 911              		.cfi_endproc
 912              	.LFE17:
 913              		.size	UART_UartRestoreConfig, .-UART_UartRestoreConfig
 914              		.global	UART_skipStart
 915              		.data
 916              		.set	.LANCHOR0,. + 0
 917              		.type	UART_skipStart, %object
 918              		.size	UART_skipStart, 1
 919              	UART_skipStart:
 920 0000 01       		.byte	1
 921              		.text
 922              	.Letext0:
 923              		.file 2 "Generated_Source\\PSoC4/cytypes.h"
 924              		.file 3 "Generated_Source\\PSoC4\\UART_PVT.h"
 925              		.file 4 "Generated_Source\\PSoC4\\UART_rx_wake.h"
 926              		.file 5 "Generated_Source\\PSoC4/CyLib.h"
 927              		.file 6 "Generated_Source\\PSoC4\\UART_SPI_UART.h"